A51 MACRO ASSEMBLER  MAIN_BKCD                                                            12/02/2009 12:07:33 PAGE     1


MACRO ASSEMBLER A51 V8.00c
OBJECT MODULE PLACED IN Main_bkcd.OBJ
ASSEMBLER INVOKED BY: D:\Keil\C51\BIN\A51.EXE Main_bkcd.src PR(.\Main_bkcd.ls1) EP DEBUG

LOC  OBJ            LINE     SOURCE

                       1     ; .\Main_bkcd.SRC generated from: Main_bkcd.c
                       2     ; COMPILER INVOKED BY:
                       3     ;        D:\Keil\C51\BIN\C51.EXE Main_bkcd.c OPTIMIZE(SIZE) BROWSE DEBUG OBJECTEXTEND SRC(.
                             \Main_bkcd.SRC)
                       4     
                       5     $nomod51 
                       6     
                       7     NAME    MAIN_BKCD
                       8     
  0080                 9     P0      DATA    080H
  0090                10     P1      DATA    090H
  00A0                11     P2      DATA    0A0H
  00B0                12     P3      DATA    0B0H
  00B4                13     T0      BIT     0B0H.4
  00D6                14     AC      BIT     0D0H.6
  00B5                15     T1      BIT     0B0H.5
  0090                16     T2      BIT     090H.0
  00AF                17     EA      BIT     0A8H.7
  00C8                18     CAP2    BIT     0C8H.0
  00D8                19     ADCSTAT DATA    0D8H
  00E8                20     I2CI    BIT     0E8H.0
  009B                21     I2CADD  DATA    09BH
  00EB                22     I2CM    BIT     0E8H.3
  00D2                23     ADC0CON1        DATA    0D2H
  00E6                24     ADC0CON2        DATA    0E6H
  00AE                25     EADC    BIT     0A8H.6
  00EB                26     GN0H    DATA    0EBH
  00E3                27     OF0H    DATA    0E3H
  00A8                28     IE      DATA    0A8H
  00FC                29     DACH    DATA    0FCH
  00E9                30     GN0L    DATA    0E9H
  00E1                31     OF0L    DATA    0E1H
  00BC                32     EDATA1  DATA    0BCH
  00A1                33     TIMECON DATA    0A1H
  009D                34     T3FD    DATA    09DH
  00EA                35     GN0M    DATA    0EAH
  00E2                36     OF0M    DATA    0E2H
  00BD                37     EDATA2  DATA    0BDH
  00BE                38     EDATA3  DATA    0BEH
  00FB                39     DACL    DATA    0FBH
  00BF                40     EDATA4  DATA    0BFH
  00CE                41     EXF2    BIT     0C8H.6
  00B7                42     RD      BIT     0B0H.7
  00C4                43     PRE0    BIT     0C0H.4
  00C9                44     CNT2    BIT     0C8H.1
  00AC                45     ES      BIT     0A8H.4
  00C5                46     PRE1    BIT     0C0H.5
  00BE                47     PADC    BIT     0B8H.6
  00D4                48     SF      DATA    0D4H
  00B8                49     IP      DATA    0B8H
  009A                50     I2CDAT  DATA    09AH
  00DB                51     ERR0    BIT     0D8H.3
  00C6                52     PRE2    BIT     0C0H.6
  00DA                53     ERR1    BIT     0D8H.2
  00C7                54     PRE3    BIT     0C0H.7
  0098                55     RI      BIT     098H.0
  00B2                56     INT0    BIT     0B0H.2
  00D7                57     CY      BIT     0D0H.7
A51 MACRO ASSEMBLER  MAIN_BKCD                                                            12/02/2009 12:07:33 PAGE     2

  00FA                58     CPHA    BIT     0F8H.2
  0099                59     TI      BIT     098H.1
  00B3                60     INT1    BIT     0B0H.3
  00DF                61     RDY0    BIT     0D8H.7
  00E8                62     I2CCON  DATA    0E8H
  00DE                63     RDY1    BIT     0D8H.6
  00CB                64     RCAP2H  DATA    0CBH
  00BC                65     PS      BIT     0B8H.4
  0081                66     SP      DATA    081H
  0091                67     T2EX    BIT     090H.1
  00D2                68     OV      BIT     0D0H.2
  00F8                69     SPR0    BIT     0F8H.0
  00CA                70     RCAP2L  DATA    0CAH
  00B9                71     ECON    DATA    0B9H
  00F9                72     SPR1    BIT     0F8H.1
  00B6                73     WR      BIT     0B0H.6
  00FD                74     DACCON  DATA    0FDH
  00D5                75     ICON    DATA    0D5H
  00CD                76     RCLK    BIT     0C8H.5
  00FB                77     CPOL    BIT     0F8H.3
  00CC                78     TCLK    BIT     0C8H.4
  0099                79     SBUF    DATA    099H
  0087                80     PCON    DATA    087H
  00C2                81     CHIPID  DATA    0C2H
  0098                82     SCON    DATA    098H
  0089                83     TMOD    DATA    089H
  0088                84     TCON    DATA    088H
  00FE                85     WCOL    BIT     0F8H.6
  00FF                86     ISPI    BIT     0F8H.7
  00C3                87     WDIR    BIT     0C0H.3
  00FC                88     SPIM    BIT     0F8H.4
  00F2                89     I2CADD1 DATA    0F2H
  0089                90     IE0     BIT     088H.1
  008B                91     IE1     BIT     088H.3
  00A5                92     HOUR    DATA    0A5H
  00F0                93     B       DATA    0F0H
  00DB                94     ADC0H   DATA    0DBH
  00A2                95     HTHSEC  DATA    0A2H
  00C0                96     WDWR    BIT     0C0H.0
  00D9                97     ADC0L   DATA    0D9H
  00DA                98     ADC0M   DATA    0DAH
  00F7                99     SPIDAT  DATA    0F7H
  00E0               100     ACC     DATA    0E0H
  00A9               101     ET0     BIT     0A8H.1
  00AB               102     ET1     BIT     0A8H.3
  008D               103     TF0     BIT     088H.5
  00D7               104     PLLCON  DATA    0D7H
  00AD               105     ET2     BIT     0A8H.5
  008F               106     TF1     BIT     088H.7
  00CF               107     TF2     BIT     0C8H.7
  009A               108     RB8     BIT     098H.2
  008C               109     TH0     DATA    08CH
  00A8               110     EX0     BIT     0A8H.0
  0088               111     IT0     BIT     088H.0
  008D               112     TH1     DATA    08DH
  009B               113     TB8     BIT     098H.3
  00AA               114     EX1     BIT     0A8H.2
  008A               115     IT1     BIT     088H.2
  00F8               116     SPICON  DATA    0F8H
  00CD               117     TH2     DATA    0CDH
  00D0               118     P       BIT     0D0H.0
  00DD               119     CAL     BIT     0D8H.5
  009F               120     SM0     BIT     098H.7
  00A6               121     INTVAL  DATA    0A6H
  008A               122     TL0     DATA    08AH
  009E               123     SM1     BIT     098H.6
A51 MACRO ASSEMBLER  MAIN_BKCD                                                            12/02/2009 12:07:33 PAGE     3

  008B               124     TL1     DATA    08BH
  009D               125     SM2     BIT     098H.5
  00DF               126     PSMCON  DATA    0DFH
  00CC               127     TL2     DATA    0CCH
  00DC               128     NOXREF  BIT     0D8H.4
  00B9               129     PT0     BIT     0B8H.1
  00BB               130     PT1     BIT     0B8H.3
  00D3               131     RS0     BIT     0D0H.3
  00EE               132     MDE     BIT     0E8H.6
  00BD               133     PT2     BIT     0B8H.5
  008C               134     TR0     BIT     088H.4
  00D4               135     RS1     BIT     0D0H.4
  00AE               136     PWMCON  DATA    0AEH
  008E               137     TR1     BIT     088H.6
  00CA               138     TR2     BIT     0C8H.2
  00B8               139     PX0     BIT     0B8H.0
  00BA               140     PX1     BIT     0B8H.2
  00EC               141     MDI     BIT     0E8H.4
  00A9               142     IEIP2   DATA    0A9H
  00A3               143     SEC     DATA    0A3H
  0083               144     DPH     DATA    083H
  00ED               145     MCO     BIT     0E8H.5
  00EF               146     MDO     BIT     0E8H.7
  00C1               147     WDE     BIT     0C0H.1
  0082               148     DPL     DATA    082H
  00CB               149     EXEN2   BIT     0C8H.3
  00EA               150     I2CRS   BIT     0E8H.2
  00A4               151     MIN     DATA    0A4H
  0084               152     DPP     DATA    084H
  009C               153     REN     BIT     098H.4
  00C7               154     EADRH   DATA    0C7H
  00C8               155     T2CON   DATA    0C8H
  00FD               156     SPE     BIT     0F8H.5
  009E               157     T3CON   DATA    09EH
  00C6               158     EADRL   DATA    0C6H
  00E9               159     I2CTX   BIT     0E8H.1
  00B7               160     SPH     DATA    0B7H
  00B2               161     PWM0H   DATA    0B2H
  00C2               162     WDS     BIT     0C0H.2
  00B0               163     RXD     BIT     0B0H.0
  00B4               164     PWM1H   DATA    0B4H
  00D1               165     ADCMODE DATA    0D1H
  00B1               166     TXD     BIT     0B0H.1
  00B1               167     PWM0L   DATA    0B1H
  00B3               168     PWM1L   DATA    0B3H
  00D5               169     F0      BIT     0D0H.5
  00AF               170     CFG848  DATA    0AFH
  00A7               171     DPCON   DATA    0A7H
  00D1               172     F1      BIT     0D0H.1
  00D0               173     PSW     DATA    0D0H
  00C0               174     WDCON   DATA    0C0H
                     175     ?PR?sttim1?MAIN_BKCD SEGMENT CODE 
                     176     ?PR?intIE?MAIN_BKCD  SEGMENT CODE 
                     177     ?PR?timer1int?MAIN_BKCD                  SEGMENT CODE 
                     178     ?PR?ser_int?MAIN_BKCD                    SEGMENT CODE 
                     179     ?DT?ser_int?MAIN_BKCD                    SEGMENT DATA OVERLAYABLE 
                     180     ?PR?kmd?MAIN_BKCD    SEGMENT CODE 
                     181     ?PR?main?MAIN_BKCD   SEGMENT CODE 
                     182     ?C_INITSEG           SEGMENT CODE 
                     183     ?CO?MAIN_BKCD        SEGMENT CODE 
                     184     ?XD?MAIN_BKCD        SEGMENT XDATA 
                     185     ?ID?MAIN_BKCD        SEGMENT IDATA 
                     186     ?BI?MAIN_BKCD        SEGMENT BIT 
                     187     ?DT?MAIN_BKCD        SEGMENT DATA 
                     188             EXTRN   XDATA (BUF_T)
                     189             EXTRN   DATA (wadc)
A51 MACRO ASSEMBLER  MAIN_BKCD                                                            12/02/2009 12:07:33 PAGE     4

                     190             EXTRN   IDATA (zadc)
                     191             EXTRN   CODE (setup)
                     192             EXTRN   CODE (_FU_repr)
                     193             EXTRN   CODE (_FU_wepr)
                     194             EXTRN   XDATA (Str_CH_A)
                     195             EXTRN   IDATA (TEMP_1)
                     196             EXTRN   CODE (task_3)
                     197             EXTRN   CODE (setup_ADC)
                     198             EXTRN   IDATA (a?)
                     199             EXTRN   IDATA (adcbuf)
                     200             EXTRN   XDATA (ZG_TABX_DAT)
                     201             EXTRN   CODE (?C?LLDXDATA)
                     202             EXTRN   CODE (?C?LSTIDATA)
                     203             EXTRN   CODE (?C?LLDIDATA)
                     204             EXTRN   CODE (?C?ULSHR)
                     205             EXTRN   CODE (?C?LSTXDATA)
                     206             EXTRN   CODE (?C?IILDX)
                     207             EXTRN   CODE (?C?UIDIV)
                     208             EXTRN   CODE (?C?ULCMP)
                     209             EXTRN   CODE (?C?ULDIV)
                     210             EXTRN   CODE (?C?LADD)
                     211             EXTRN   CODE (?C?SLCMP)
                     212             EXTRN   CODE (?C_STARTUP)
                     213             EXTRN   CODE (?C?LSTKXDATA)
                     214             EXTRN   CODE (?C?LSHL)
                     215             EXTRN   CODE (?C?LLDIDATA0)
                     216             PUBLIC  ff1
                     217             PUBLIC  T_MS_ADC
                     218             PUBLIC  ADR_E
                     219             PUBLIC  tmpadc
                     220             PUBLIC  buf_sh
                     221             PUBLIC  ob_par
                     222             PUBLIC  STAT_in
                     223             PUBLIC  adcins
                     224             PUBLIC  fzb2
                     225             PUBLIC  NM_STR
                     226             PUBLIC  W_STAT
                     227             PUBLIC  fzb1
                     228             PUBLIC  fzb0
                     229             PUBLIC  t
                     230             PUBLIC  rasx2
                     231             PUBLIC  len1
                     232             PUBLIC  rasx1
                     233             PUBLIC  F_ZIZM
                     234             PUBLIC  MSK_LADR
                     235             PUBLIC  Len_p
                     236             PUBLIC  CNT_CIKL
                     237             PUBLIC  TABX_DAT
                     238             PUBLIC  j
                     239             PUBLIC  ADR_INDEKC
                     240             PUBLIC  FCNT_SEC
                     241             PUBLIC  i
                     242             PUBLIC  cnt_dol
                     243             PUBLIC  DATA_KNP
                     244             PUBLIC  nr
                     245             PUBLIC  CNT_CT
                     246             PUBLIC  CM_RAX
                     247             PUBLIC  FL_KNP
                     248             PUBLIC  VR_P
                     249             PUBLIC  fcoplbuf
                     250             PUBLIC  mi
                     251             PUBLIC  t11
                     252             PUBLIC  lineadd
                     253             PUBLIC  FL_CMR
                     254             PUBLIC  FL_21
                     255             PUBLIC  tms
A51 MACRO ASSEMBLER  MAIN_BKCD                                                            12/02/2009 12:07:33 PAGE     5

                     256             PUBLIC  FL_20
                     257             PUBLIC  rez
                     258             PUBLIC  tmp
                     259             PUBLIC  wadc1
                     260             PUBLIC  tmo
                     261             PUBLIC  nro
                     262             PUBLIC  flz
                     263             PUBLIC  got
                     264             PUBLIC  CM_CRD
                     265             PUBLIC  tmpadc_m
                     266             PUBLIC  Str_TDAT
                     267             PUBLIC  rasx2_t
                     268             PUBLIC  ens
                     269             PUBLIC  rasx1_t
                     270             PUBLIC  flagadc
                     271             PUBLIC  rasx2_s
                     272             PUBLIC  rasx1_s
                     273             PUBLIC  CM3
                     274             PUBLIC  CM2
                     275             PUBLIC  CM1
                     276             PUBLIC  len
                     277             PUBLIC  ADR_BF
                     278             PUBLIC  copy_p1
                     279             PUBLIC  FL_REZ_OUT
                     280             PUBLIC  buf_adccon2
                     281             PUBLIC  PA_L
                     282             PUBLIC  crc
                     283             PUBLIC  zbuf
                     284             PUBLIC  PA_H
                     285             PUBLIC  TEMP
                     286             PUBLIC  EEPR_ADDBUF
                     287             PUBLIC  MSK_ERR
                     288             PUBLIC  cmd
                     289             PUBLIC  bufcht1
                     290             PUBLIC  INDEKC
                     291             PUBLIC  s_otv
                     292             PUBLIC  z4
                     293             PUBLIC  z3
                     294             PUBLIC  z2
                     295             PUBLIC  lbuf
                     296             PUBLIC  TM_LINE
                     297             PUBLIC  z1
                     298             PUBLIC  FL_BLOK_EEPR
                     299             PUBLIC  z0
                     300             PUBLIC  crco
                     301             PUBLIC  status
                     302             PUBLIC  CNT_TM_DOL
                     303             PUBLIC  MSK_PW2
                     304             PUBLIC  lineadd_o
                     305             PUBLIC  MSK_PW1
                     306             PUBLIC  r2?
                     307             PUBLIC  r1?
                     308             PUBLIC  dl_p
                     309             PUBLIC  A_N2
                     310             PUBLIC  priem
                     311             PUBLIC  A_N1
                     312             PUBLIC  kon_t
                     313             PUBLIC  fcmd
                     314             PUBLIC  j2
                     315             PUBLIC  j1
                     316             PUBLIC  CLK_DAY
                     317             PUBLIC  FCNT1_SEC
                     318             PUBLIC  CNT_T
                     319             PUBLIC  i1
                     320             PUBLIC  MM
                     321             PUBLIC  bufout
A51 MACRO ASSEMBLER  MAIN_BKCD                                                            12/02/2009 12:07:33 PAGE     6

                     322             PUBLIC  DATA_KNP1
                     323             PUBLIC  IND_TAB
                     324             PUBLIC  st_ser
                     325             PUBLIC  nr1
                     326             PUBLIC  xbufin
                     327             PUBLIC  Kld_Year
                     328             PUBLIC  DL
                     329             PUBLIC  len_o
                     330             PUBLIC  copy_p
                     331             PUBLIC  CH
                     332             PUBLIC  er2
                     333             PUBLIC  er1
                     334             PUBLIC  mi1
                     335             PUBLIC  ep2
                     336             PUBLIC  FL_SIN_ADC
                     337             PUBLIC  Kld_Month
                     338             PUBLIC  K_PAH
                     339             PUBLIC  TAB_NO_LINE_2
                     340             PUBLIC  TAB_NO_LINE_1
                     341             PUBLIC  main
                     342             PUBLIC  kmd
                     343             PUBLIC  ser_int
                     344             PUBLIC  timer1int
                     345             PUBLIC  intIE
                     346             PUBLIC  sttim1
                     347     
----                 348             XSEG  AT  080H
0080                 349              xbufin:   DS   34
                     350     
----                 351             XSEG  AT  040H
0040                 352              bufout:   DS   34
                     353     
----                 354             XSEG  AT  00H
0000                 355                lbuf:   DS   28
                     356     
----                 357             XSEG  AT  0230H
0230                 358         buf_adccon2:   DS   16
                     359     
----                 360             XSEG  AT  07B4H
07B4                 361            Str_TDAT:   DS   64
                     362     
----                 363             RSEG  ?DT?ser_int?MAIN_BKCD
0000                 364     ?ser_int?BYTE:
0000                 365               i?340:   DS   1
0001                 366             ORG  1
0001                 367              i1?341:   DS   1
                     368     
----                 369             RSEG  ?XD?MAIN_BKCD
0000                 370               K_PAH:   DS   1
0001                 371                 mi1:   DS   2
0003                 372                  DL:   DS   1
0004                 373              st_ser:   DS   1
0005                 374               CNT_T:   DS   4
0009                 375               priem:   DS   1
000A                 376                dl_p:   DS   1
000B                 377             MSK_PW1:   DS   1
000C                 378           lineadd_o:   DS   1
000D                 379             MSK_PW2:   DS   1
000E                 380          CNT_TM_DOL:   DS   2
0010                 381                  z0:   DS   1
0011                 382                  z1:   DS   1
0012                 383                  z2:   DS   1
0013                 384                  z3:   DS   1
0014                 385                  z4:   DS   1
0015                 386               s_otv:   DS   1
0016                 387             MSK_ERR:   DS   1
A51 MACRO ASSEMBLER  MAIN_BKCD                                                            12/02/2009 12:07:33 PAGE     7

0017                 388                PA_H:   DS   1
0018                 389                PA_L:   DS   1
0019                 390              ADR_BF:   DS   1
001A                 391             rasx1_s:   DS   4
001E                 392             rasx2_s:   DS   4
0022                 393                 flz:   DS   1
0023                 394                  mi:   DS   2
0025                 395                VR_P:   DS   4
0029                 396              CNT_CT:   DS   1
002A                 397            TABX_DAT:   DS   2
002C                 398              NM_STR:   DS   1
002D                 399              ob_par:   DS   1
002E                 400              buf_sh:   DS   4
                     401     
----                 402             RSEG  ?ID?MAIN_BKCD
0000                 403           Kld_Month:   DS   1
0001                 404                  CH:   DS   1
0002                 405            Kld_Year:   DS   1
0003                 406                 nr1:   DS   1
0004                 407           DATA_KNP1:   DS   1
0005                 408                  MM:   DS   7
000C                 409             CLK_DAY:   DS   1
000D                 410                  j1:   DS   1
000E                 411                  j2:   DS   1
000F                 412                A_N1:   DS   2
0011                 413                A_N2:   DS   2
0013                 414                crco:   DS   1
0014                 415             TM_LINE:   DS   1
0015                 416              INDEKC:   DS   2
0017                 417         EEPR_ADDBUF:   DS   4
001B                 418                TEMP:   DS   1
001C                 419             rasx1_t:   DS   2
001E                 420             rasx2_t:   DS   2
0020                 421              CM_CRD:   DS   2
0022                 422                 nro:   DS   1
0023                 423                 tmo:   DS   1
0024                 424                 tmp:   DS   1
0025                 425                 tms:   DS   1
0026                 426              CM_RAX:   DS   2
0028                 427            DATA_KNP:   DS   1
0029                 428             cnt_dol:   DS   2
002B                 429                   i:   DS   1
002C                 430          ADR_INDEKC:   DS   1
002D                 431                   j:   DS   1
002E                 432            CNT_CIKL:   DS   1
002F                 433               Len_p:   DS   1
0030                 434            MSK_LADR:   DS   1
0031                 435               rasx1:   DS   2
0033                 436               rasx2:   DS   2
0035                 437              W_STAT:   DS   1
0036                 438              adcins:   DS   2
0038                 439             STAT_in:   DS   2
003A                 440            T_MS_ADC:   DS   2
                     441     
----                 442             RSEG  ?BI?MAIN_BKCD
0000                 443          FL_SIN_ADC:   DBIT   1
0001                 444                 ep2:   DBIT   1
0002                 445                 er1:   DBIT   1
0003                 446                 er2:   DBIT   1
0004                 447           FCNT1_SEC:   DBIT   1
0005                 448                fcmd:   DBIT   1
0006                 449               kon_t:   DBIT   1
0007                 450        FL_BLOK_EEPR:   DBIT   1
0008                 451          FL_REZ_OUT:   DBIT   1
0009                 452             flagadc:   DBIT   1
000A                 453                 ens:   DBIT   1
A51 MACRO ASSEMBLER  MAIN_BKCD                                                            12/02/2009 12:07:33 PAGE     8

000B                 454                 got:   DBIT   1
000C                 455                 rez:   DBIT   1
000D                 456               FL_20:   DBIT   1
000E                 457               FL_21:   DBIT   1
000F                 458              FL_CMR:   DBIT   1
0010                 459                 t11:   DBIT   1
0011                 460            fcoplbuf:   DBIT   1
0012                 461              FL_KNP:   DBIT   1
0013                 462            FCNT_SEC:   DBIT   1
0014                 463              F_ZIZM:   DBIT   1
0015                 464                   t:   DBIT   1
0016                 465                fzb0:   DBIT   1
0017                 466                fzb1:   DBIT   1
0018                 467                fzb2:   DBIT   1
0019                 468                 ff1:   DBIT   1
                     469     
----                 470             RSEG  ?DT?MAIN_BKCD
0000                 471              copy_p:   DS   2
0002                 472               len_o:   DS   1
0003                 473             IND_TAB:   DS   1
0004                 474                  i1:   DS   1
0005                 475                 r1?:   DS   4
0009                 476                 r2?:   DS   4
000D                 477              status:   DS   1
000E                 478             bufcht1:   DS   2
0010                 479                 cmd:   DS   1
0011                 480                zbuf:   DS   34
0033                 481                 crc:   DS   1
0034                 482             copy_p1:   DS   2
0036                 483                 len:   DS   1
0037                 484                 CM1:   DS   2
0039                 485                 CM2:   DS   2
003B                 486                 CM3:   DS   2
003D                 487            tmpadc_m:   DS   2
003F                 488               wadc1:   DS   1
0040                 489             lineadd:   DS   1
0041                 490                  nr:   DS   1
0042                 491                len1:   DS   1
0043                 492              tmpadc:   DS   2
0045                 493               ADR_E:   DS   2
                     494     
----                 495             RSEG  ?CO?MAIN_BKCD
0000                 496     TAB_NO_LINE_1:
0000 0028            497             DW      00028H
0002 0064            498             DW      00064H
0004 0028            499             DW      00028H
0006 0064            500             DW      00064H
0008 0028            501             DW      00028H
000A 0064            502             DW      00064H
000C 0028            503             DW      00028H
000E 0064            504             DW      00064H
0010 0028            505             DW      00028H
0012 0064            506             DW      00064H
0014 0028            507             DW      00028H
0016 0064            508             DW      00064H
0018 0028            509             DW      00028H
001A 0064            510             DW      00064H
001C 0028            511             DW      00028H
001E 0064            512             DW      00064H
0020 0028            513             DW      00028H
0022 0064            514             DW      00064H
0024 0028            515             DW      00028H
0026 0064            516             DW      00064H
0028 0028            517             DW      00028H
002A 0064            518             DW      00064H
002C 0028            519             DW      00028H
A51 MACRO ASSEMBLER  MAIN_BKCD                                                            12/02/2009 12:07:33 PAGE     9

002E 0064            520             DW      00064H
0030 0028            521             DW      00028H
0032 0064            522             DW      00064H
0034 0028            523             DW      00028H
0036 0064            524             DW      00064H
0038 0028            525             DW      00028H
003A 0064            526             DW      00064H
003C 0028            527             DW      00028H
003E 0064            528             DW      00064H
                     529     
0040                 530     TAB_NO_LINE_2:
0040 0004            531             DW      00004H
0042 0064            532             DW      00064H
0044 0004            533             DW      00004H
0046 0064            534             DW      00064H
0048 0004            535             DW      00004H
004A 0064            536             DW      00064H
004C 0004            537             DW      00004H
004E 0064            538             DW      00064H
0050 0004            539             DW      00004H
0052 0064            540             DW      00064H
0054 0004            541             DW      00004H
0056 0064            542             DW      00064H
0058 0004            543             DW      00004H
005A 0064            544             DW      00064H
005C 0004            545             DW      00004H
005E 0064            546             DW      00064H
0060 0004            547             DW      00004H
0062 0064            548             DW      00064H
0064 0004            549             DW      00004H
0066 0064            550             DW      00064H
0068 0004            551             DW      00004H
006A 0064            552             DW      00064H
006C 0004            553             DW      00004H
006E 0064            554             DW      00064H
0070 0028            555             DW      00028H
0072 0064            556             DW      00064H
0074 0028            557             DW      00028H
0076 0064            558             DW      00064H
0078 0028            559             DW      00028H
007A 0064            560             DW      00064H
007C 0028            561             DW      00028H
007E 0064            562             DW      00064H
                     563     
                     564     
----                 565             RSEG  ?C_INITSEG
0000 02              566             DB      002H
0001 00       F      567             DB      INDEKC
0002 0000            568             DW      00000H
                     569     
0004 01              570             DB      001H
0005 00       F      571             DB      ADR_INDEKC
0006 00              572             DB      000H
                     573     
0007 01              574             DB      001H
0008 00       F      575             DB      MSK_LADR
0009 10              576             DB      010H
                     577     
000A 01              578             DB      001H
000B 00       F      579             DB      CH
000C 00              580             DB      000H
                     581     
000D 01              582             DB      001H
000E 00       F      583             DB      W_STAT
000F 00              584             DB      000H
                     585     
A51 MACRO ASSEMBLER  MAIN_BKCD                                                            12/02/2009 12:07:33 PAGE    10

0010 01              586             DB      001H
0011 00       F      587             DB      status
0012 00              588             DB      000H
                     589     
0013 02              590             DB      002H
0014 00       F      591             DB      bufcht1
0015 00              592             DB      000H
0016 00              593             DB      000H
                     594     
0017 02              595             DB      002H
0018 00       F      596             DB      cnt_dol
0019 0000            597             DW      00000H
                     598     
001B 02              599             DB      002H
001C 00       F      600             DB      rasx1
001D 0000            601             DW      00000H
                     602     
001F 02              603             DB      002H
0020 00       F      604             DB      rasx1_t
0021 0000            605             DW      00000H
                     606     
0023 02              607             DB      002H
0024 00       F      608             DB      rasx2
0025 0000            609             DW      00000H
                     610     
0027 02              611             DB      002H
0028 00       F      612             DB      rasx2_t
0029 0000            613             DW      00000H
                     614     
002B 04              615             DB      004H
002C 00       F      616             DB      r2?
002D 00000000        617             DB      000H,000H,000H,000H     ; long
                     618     
0031 04              619             DB      004H
0032 00       F      620             DB      r1?
0033 00000000        621             DB      000H,000H,000H,000H     ; long
                     622     
0037 C100     F      623             DB      0C1H, ff1 + 000H        ; bit-init
                     624     
0039 C100     F      625             DB      0C1H, FCNT_SEC + 000H   ; bit-init
                     626     
003B C100     F      627             DB      0C1H, FCNT1_SEC + 000H  ; bit-init
                     628     
003D C100     F      629             DB      0C1H, F_ZIZM + 000H     ; bit-init
                     630     
003F C100     F      631             DB      0C1H, FL_KNP + 000H     ; bit-init
                     632     
0041 C100     F      633             DB      0C1H, flagadc + 000H    ; bit-init
                     634     
0043 C100     F      635             DB      0C1H, FL_BLOK_EEPR + 000H       ; bit-init
                     636     
0045 C100     F      637             DB      0C1H, FL_CMR + 000H     ; bit-init
                     638     
0047 C100     F      639             DB      0C1H, FL_REZ_OUT + 000H ; bit-init
                     640     
0049 C100     F      641             DB      0C1H, FL_20 + 000H      ; bit-init
                     642     
004B C100     F      643             DB      0C1H, FL_21 + 000H      ; bit-init
                     644     
004D C100     F      645             DB      0C1H, fcmd + 000H       ; bit-init
                     646     
004F C100     F      647             DB      0C1H, fcoplbuf + 000H   ; bit-init
                     648     
0051 C100     F      649             DB      0C1H, fzb1 + 000H       ; bit-init
                     650     
0053 C100     F      651             DB      0C1H, fzb2 + 000H       ; bit-init
A51 MACRO ASSEMBLER  MAIN_BKCD                                                            12/02/2009 12:07:33 PAGE    11

                     652     
0055 C100     F      653             DB      0C1H, fzb0 + 000H       ; bit-init
                     654     
0057 C100     F      655             DB      0C1H, FL_SIN_ADC + 000H ; bit-init
                     656     
0059 44              657             DB      044H
005A 0000     F      658             DW      rasx1_s
005C 00000000        659             DB      000H,000H,000H,000H     ; long
                     660     
0060 44              661             DB      044H
0061 0000     F      662             DW      rasx2_s
0063 00000000        663             DB      000H,000H,000H,000H     ; long
                     664     
0067 01              665             DB      001H
0068 00       F      666             DB      crco
0069 00              667             DB      000H
                     668     
006A C100     F      669             DB      0C1H, er1 + 000H        ; bit-init
                     670     
006C C100     F      671             DB      0C1H, er2 + 000H        ; bit-init
                     672     
006E C100     F      673             DB      0C1H, ens + 000H        ; bit-init
                     674     
0070 02              675             DB      002H
0071 00       F      676             DB      A_N1
0072 0000            677             DW      00000H
                     678     
0074 02              679             DB      002H
0075 00       F      680             DB      A_N2
0076 0000            681             DW      00000H
                     682     
                     683     ; /*
                     684     ; Copyright 1995-1996 Keil Software, Inc.  4-задания. task_3 измерение 4 периодов
                     685     ; порт2(0.1.2.3.) 
                     686     ; БАЗОВЫЙ КОНТРОЛЛЕР ИЗМЕРИТЕЛЬНОГО МОДУЛЯ (BKCD-ADuc848)  2005г.
                     687     ; ------------------------------------------------------------------------------*/
                     688     ; 
                     689     ; #include "r_main.h" 
                     690     ; #include "main.h" 
                     691     ; #include "define_stuct.h"
                     692     ; //#include "reg816.h"
                     693     ; #include "aduc848.h"
                     694     ; #include "ADC_bkcd.h"
                     695     ; //#include "Опис_Таб_Кан.h"
                     696     ; extern  xdata unsigned int K1;
                     697     ; extern xdata unsigned int H1;
                     698     ; extern   xdata unsigned int K2;
                     699     ; extern  xdata unsigned int H2; 
                     700     ; extern idata unsigned char  adcbuf[12];
                     701     ; data unsigned int tmpadc;
                     702     ; //extern xdata unsigned char BUF_S[15];
                     703     ; extern void Timer1int (void);
                     704     ; void kmd (void);
                     705     ; xdata unsigned char buf_sh[4];
                     706     ; extern xdata unsigned long BUF_T[15];
                     707     ; 
                     708     ; extern void FU_wepr (unsigned char idata *in_buf,unsigned char  n_peg,
                     709     ;              unsigned  char idata *ad_rg);  
                     710     ; extern void FU_repr (unsigned  char idata *reg_p,unsigned char  n_peg,
                     711     ; unsigned  char idata *ad_rg);//ad_rg[2] - adreeprom,ldata n_reg -номер страницы
                     712     ; //extern void repr2 (unsigned  char idata *reg_p,unsigned char  n_peg,
                     713     ; //unsigned  char idata *ad_rg);//ad_rg[2] - adreeprom,ldata n_reg -номер страницы
                     714     ; extern  void setup (void);
                     715     ; extern  void setup_ADC (void);
                     716     ; extern  void wradc(void);
                     717     ; extern void sttim1 (void);
A51 MACRO ASSEMBLER  MAIN_BKCD                                                            12/02/2009 12:07:33 PAGE    12

                     718     ; extern void ser_int (void);
                     719     ; extern void timer1int (void);
                     720     ; 
                     721     ; extern void task_3 ( void) ;
                     722     ; 
                     723     ; 
                     724     ; extern xdata unsigned char ZG_TABX_DAT[4];
                     725     ; 
                     726     ; idata unsigned char Len_p;
                     727     ; 
                     728     ;  data unsigned char len_o;
                     729     ; bit  t, kon_t,rez;
                     730     ; bit t11, ep2, got;
                     731     ; 
                     732     ; idata unsigned char  j,j1,i,j2;         // временно изза зависания макроса сетап адс если
                              их расположить в регистрах майн
                     733     ; data unsigned char i1;                                  // временно изза зависания макрос
                             а сетап адс если их расположить в регистрах майн
                     734     ; 
                     735     ; 
                     736     ; xdata unsigned char ob_par,st_ser;
                     737     ; 
                     738     ; 
                     739     ; idata unsigned char nr1,tmo,nro,crco=0,tms;
                     740     ; 
                     741     ; idata unsigned char tmp;
                     742     ; 
                     743     ; xdata unsigned char dl_p;
                     744     ; 
                     745     ; 
                     746     ; extern data  unsigned char  wadc;
                     747     ; extern idata unsigned char z,zadc,a,A_N,N_CH1,N_CH2;
                     748     ; 
                     749     ; //extern  data unsigned int CM1,CM2,CM3,CM_RAX1;
                     750     ; extern data unsigned char N_CH;
                     751     ; 
                     752     ;  extern xdata struct TABX_CH_A 
                     753     ; {
                     754     ; //unsigned char ZGL_TABX_CH[4]; 
                     755     ; unsigned char NAME_PAR; //имя параметра измеряемого
                     756     ; unsigned char R_IZM;    //режим измерения анал.каналов(task3/task2)
                     757     ; unsigned char Frm_Dat; //значение запятой 00 40 80 C0; 00 10 20 30; ......
                     758     ; unsigned char LA_TAB; //длина таблицы
                     759     ; unsigned char NA_P1; //имя производного параметра1(порог)
                     760     ; unsigned char NA_P2; //имя производного параметра2(I/U)
                     761     ; unsigned char NA_P3; //формат основного параметра {XX,X запятая)
                     762     ; unsigned char NA_P5; //имя производного параметра5 
                     763     ; unsigned char NA_P4; //формат производного параметра {XX,X запятая)
                     764     ; unsigned char N_RAZ; //номер разъема TIP_PAR;
                     765     ; unsigned char KF_CRD; //коффициент усреднения
                     766     ; unsigned char KF_WIND;
                     767     ; unsigned int  KF_KORZ; //коффициент коррекции(множитель)  резул.измерения(физ.значен)
                     768     ; unsigned int  KF_KORZ1;//KF_KORZ1; //коффициент коррекции1(делитель) резул.измерения(физ.
                             значен)
                     769     ; //unsigned char  KF_KORZ1; //адрес размещения
                     770     ; }TABX_CH_A;
                     771     ; extern xdata struct  TABX_CH_A Str_CH_A[13]; //0x0494;// адрес и количество структур данн
                             ого типа
                     772     ; 
                     773     ;  xdata struct TABX_DAT 
                     774     ; {   
                     775     ; unsigned char NAME_PAR; //имя параметра
                     776     ; unsigned char ADR_RZ; //адрес размещения результата в буфер результатов
                     777     ; }TABX_DAT;
                     778     ;  xdata struct  TABX_DAT Str_TDAT[32] _at_ 0x07B4;// адрес и количество структур данного т
                             ипа
A51 MACRO ASSEMBLER  MAIN_BKCD                                                            12/02/2009 12:07:33 PAGE    13

                     779     ; 
                     780     ; extern code unsigned int  TAB_ADC[4][9];
                     781     ; 
                     782     ; extern data  unsigned char  wadc,AD_B;
                     783     ; data  unsigned char wadc1;
                     784     ; extern unsigned long idata TEMP_1;
                     785     ; //extern  data unsigned int  cnt_dol,rasx1, rasx1_t,rasx2, rasx2_t, copy_p0,copy_p1; 
                     786     ; idata unsigned char MM[7];
                     787     ; extern  data unsigned int  copy_p, copy_p1; 
                     788     ; //extern idata unsigned int  rasx1_t, rasx2_t;
                     789     ; //extern idata unsigned int cnt_dol,rasx1,rasx2;
                     790     ; 
                     791     ; xdata unsigned char flz; // флаг защиты буфера результатов
                     792     ; xdata unsigned char   z0,z1,z2,z3,z4; // переменные для перекопирования параметра в случа
                             е его порчи
                     793     ; bit er1=0, er2=0, ens=0;
                     794     ; //idata unsigned int sec1=0,sec2=0;
                     795     ; idata unsigned int A_N1=0,A_N2=0;
                     796     ; 
                     797     ; 
                     798     ; 
                     799     ; 
                     800     ; 
                     801     ; 
                     802     ;  /************** timer1 *********************/
                     803     ; 
                     804     ; void sttim1 (void) using 0
                     805     
----                 806             RSEG  ?PR?sttim1?MAIN_BKCD
0000                 807     sttim1:
                     808                             ; SOURCE LINE # 122
                     809     ; {
                     810     ;   //TF1=0;    
                     811     ;   TR1=0;
                     812                             ; SOURCE LINE # 125
0000 C28E            813             CLR     TR1
                     814     ;   TL1 = R_INT_TMR1_L;//0xC4;//-200;
                     815                             ; SOURCE LINE # 126
0002 758BC0          816             MOV     TL1,#0C0H
                     817     ;   TH1 = R_INT_TMR1_H;//-1;
                     818                             ; SOURCE LINE # 127
0005 758DE7          819             MOV     TH1,#0E7H
                     820     ;   TR1 = 1;
                     821                             ; SOURCE LINE # 128
0008 D28E            822             SETB    TR1
                     823     ;   ET1 = 0;
                     824                             ; SOURCE LINE # 129
000A C2AB            825             CLR     ET1
                     826     ; return;
                     827     ; }
                     828                             ; SOURCE LINE # 131
000C                 829     ?C0001:
000C 22              830             RET     
                     831     ; END OF sttim1
                     832     
----                 833     CSEG    AT      00003H
0003 020000   F      834             LJMP    intIE
                     835     
                     836     ; 
                     837     ; 
                     838     ; void intIE (void) interrupt 0
                     839     
----                 840             RSEG  ?PR?intIE?MAIN_BKCD
                     841             USING   0
0000                 842     intIE:
0000 C0E0            843             PUSH    ACC
A51 MACRO ASSEMBLER  MAIN_BKCD                                                            12/02/2009 12:07:33 PAGE    14

0002 C0F0            844             PUSH    B
0004 C083            845             PUSH    DPH
0006 C082            846             PUSH    DPL
0008 C0D0            847             PUSH    PSW
000A 75D000          848             MOV     PSW,#00H
000D C000            849             PUSH    AR0
000F C004            850             PUSH    AR4
0011 C005            851             PUSH    AR5
0013 C006            852             PUSH    AR6
0015 C007            853             PUSH    AR7
                     854             USING   0
                     855                             ; SOURCE LINE # 134
                     856     ; {
                     857     ;  /*
                     858     ;   i=0;
                     859     ;   WR=1;
                     860     ;   while (1)
                     861     ;   {
                     862     ;   
                     863     ;   SBUF=0x77;
                     864     ;   while (TI==0)
                     865     ;   {}
                     866     ;   TI=0;
                     867     ;   }
                     868     ;   WR=0;
                     869     ;   */
                     870     ;  // EEPR_ADDBUF[0]=0;
                     871     ;  // EEPR_ADDBUF[1]=0;
                     872     ;  // TEMP=&lbuf[0];
                     873     ;  // FU_wepr(TEMP,4,&EEPR_ADDBUF[0]);
                     874     ;  /*
                     875     ; #pragma asm
                     876     ; //POP B
                     877     ; MOV EADRH, #00H    
                     878     ; MOV EADRL, #58H 
                     879     ; //MOV ECON,   0x01    
                     880     ; MOV EDATA1, #11H 
                     881     ; MOV EDATA2, #22H 
                     882     ; MOV EDATA3, #33H 
                     883     ; MOV EDATA4, #44H 
                     884     ; //MOV     ECON,#05H                                          
                     885     ; MOV     ECON,#02H
                     886     ; MOV     EADRH,#00H 
                     887     ; 
                     888     ; #pragma endasm
                     889     ;  */
                     890     ; 
                     891     ; 
                     892     ;       j=buf_sh[0];
                     893                             ; SOURCE LINE # 171
0017 900000   F      894             MOV     DPTR,#buf_sh
001A E0              895             MOVX    A,@DPTR
001B FF              896             MOV     R7,A
001C 7800     F      897             MOV     R0,#LOW (j)
001E F6              898             MOV     @R0,A
                     899     ;       if (j!=0xFF)
                     900                             ; SOURCE LINE # 172
001F F4              901             CPL     A
0020 6054            902             JZ      ?C0002
                     903     ;       {       TEMP_1=BUF_T[j];   
                     904                             ; SOURCE LINE # 173
0022 E6              905             MOV     A,@R0
0023 25E0            906             ADD     A,ACC
0025 25E0            907             ADD     A,ACC
0027 2400     F      908             ADD     A,#LOW (BUF_T)
0029 F582            909             MOV     DPL,A
A51 MACRO ASSEMBLER  MAIN_BKCD                                                            12/02/2009 12:07:33 PAGE    15

002B E4              910             CLR     A
002C 3400     F      911             ADDC    A,#HIGH (BUF_T)
002E F583            912             MOV     DPH,A
0030 120000   F      913             LCALL   ?C?LLDXDATA
0033 7800     F      914             MOV     R0,#LOW (TEMP_1)
0035 120000   F      915             LCALL   ?C?LSTIDATA
                     916     ;               FUM_Epr_Wrout((0x160-0x100)>>2,TEMP_1>>24,TEMP_1>>16,TEMP_1>>8,TEMP_1)
                     917                             ; SOURCE LINE # 174
0038 C2AF            918             CLR     EA
003A 75C700          919             MOV     EADRH,#00H
003D 75C618          920             MOV     EADRL,#018H
0040 75B901          921             MOV     ECON,#01H
0043 7800     F      922             MOV     R0,#LOW (TEMP_1)
0045 120000   F      923             LCALL   ?C?LLDIDATA
0048 7818            924             MOV     R0,#018H
004A 120000   F      925             LCALL   ?C?ULSHR
004D 8FBC            926             MOV     EDATA1,R7
004F 7800     F      927             MOV     R0,#LOW (TEMP_1)
0051 120000   F      928             LCALL   ?C?LLDIDATA
0054 7810            929             MOV     R0,#010H
0056 120000   F      930             LCALL   ?C?ULSHR
0059 8FBD            931             MOV     EDATA2,R7
005B 7800     F      932             MOV     R0,#LOW (TEMP_1)
005D 120000   F      933             LCALL   ?C?LLDIDATA
0060 7808            934             MOV     R0,#08H
0062 120000   F      935             LCALL   ?C?ULSHR
0065 8FBE            936             MOV     EDATA3,R7
0067 7800     F      937             MOV     R0,#LOW (TEMP_1)
0069 120000   F      938             LCALL   ?C?LLDIDATA
006C 8FBF            939             MOV     EDATA4,R7
006E 75B902          940             MOV     ECON,#02H
0071 75C700          941             MOV     EADRH,#00H
0074 D2AF            942             SETB    EA
                     943     ;       } 
                     944                             ; SOURCE LINE # 175
0076                 945     ?C0002:
                     946     ;       j=buf_sh[1];
                     947                             ; SOURCE LINE # 176
0076 900000   F      948             MOV     DPTR,#buf_sh+01H
0079 E0              949             MOVX    A,@DPTR
007A FF              950             MOV     R7,A
007B 7800     F      951             MOV     R0,#LOW (j)
007D F6              952             MOV     @R0,A
                     953     ;       if (j!=0xFF)
                     954                             ; SOURCE LINE # 177
007E F4              955             CPL     A
007F 6054            956             JZ      ?C0003
                     957     ;       { TEMP_1=BUF_T[j];
                     958                             ; SOURCE LINE # 178
0081 E6              959             MOV     A,@R0
0082 25E0            960             ADD     A,ACC
0084 25E0            961             ADD     A,ACC
0086 2400     F      962             ADD     A,#LOW (BUF_T)
0088 F582            963             MOV     DPL,A
008A E4              964             CLR     A
008B 3400     F      965             ADDC    A,#HIGH (BUF_T)
008D F583            966             MOV     DPH,A
008F 120000   F      967             LCALL   ?C?LLDXDATA
0092 7800     F      968             MOV     R0,#LOW (TEMP_1)
0094 120000   F      969             LCALL   ?C?LSTIDATA
                     970     ;        FUM_Epr_Wrout((0x164-0x100)>>2,TEMP_1>>24,TEMP_1>>16,TEMP_1>>8,TEMP_1)
                     971                             ; SOURCE LINE # 179
0097 C2AF            972             CLR     EA
0099 75C700          973             MOV     EADRH,#00H
009C 75C619          974             MOV     EADRL,#019H
009F 75B901          975             MOV     ECON,#01H
A51 MACRO ASSEMBLER  MAIN_BKCD                                                            12/02/2009 12:07:33 PAGE    16

00A2 7800     F      976             MOV     R0,#LOW (TEMP_1)
00A4 120000   F      977             LCALL   ?C?LLDIDATA
00A7 7818            978             MOV     R0,#018H
00A9 120000   F      979             LCALL   ?C?ULSHR
00AC 8FBC            980             MOV     EDATA1,R7
00AE 7800     F      981             MOV     R0,#LOW (TEMP_1)
00B0 120000   F      982             LCALL   ?C?LLDIDATA
00B3 7810            983             MOV     R0,#010H
00B5 120000   F      984             LCALL   ?C?ULSHR
00B8 8FBD            985             MOV     EDATA2,R7
00BA 7800     F      986             MOV     R0,#LOW (TEMP_1)
00BC 120000   F      987             LCALL   ?C?LLDIDATA
00BF 7808            988             MOV     R0,#08H
00C1 120000   F      989             LCALL   ?C?ULSHR
00C4 8FBE            990             MOV     EDATA3,R7
00C6 7800     F      991             MOV     R0,#LOW (TEMP_1)
00C8 120000   F      992             LCALL   ?C?LLDIDATA
00CB 8FBF            993             MOV     EDATA4,R7
00CD 75B902          994             MOV     ECON,#02H
00D0 75C700          995             MOV     EADRH,#00H
00D3 D2AF            996             SETB    EA
                     997     ;       }
                     998                             ; SOURCE LINE # 180
00D5                 999     ?C0003:
                    1000     ;       
                    1001     ;       j=buf_sh[2];
                    1002                             ; SOURCE LINE # 182
00D5 900000   F     1003             MOV     DPTR,#buf_sh+02H
00D8 E0             1004             MOVX    A,@DPTR
00D9 FF             1005             MOV     R7,A
00DA 7800     F     1006             MOV     R0,#LOW (j)
00DC F6             1007             MOV     @R0,A
                    1008     ;       if (j!=0xFF)
                    1009                             ; SOURCE LINE # 183
00DD F4             1010             CPL     A
00DE 6054           1011             JZ      ?C0004
                    1012     ;       {  TEMP_1=BUF_T[j];
                    1013                             ; SOURCE LINE # 184
00E0 E6             1014             MOV     A,@R0
00E1 25E0           1015             ADD     A,ACC
00E3 25E0           1016             ADD     A,ACC
00E5 2400     F     1017             ADD     A,#LOW (BUF_T)
00E7 F582           1018             MOV     DPL,A
00E9 E4             1019             CLR     A
00EA 3400     F     1020             ADDC    A,#HIGH (BUF_T)
00EC F583           1021             MOV     DPH,A
00EE 120000   F     1022             LCALL   ?C?LLDXDATA
00F1 7800     F     1023             MOV     R0,#LOW (TEMP_1)
00F3 120000   F     1024             LCALL   ?C?LSTIDATA
                    1025     ;               FUM_Epr_Wrout((0x168-0x100)>>2,TEMP_1>>24,TEMP_1>>16,TEMP_1>>8,TEMP_1)
                    1026                             ; SOURCE LINE # 185
00F6 C2AF           1027             CLR     EA
00F8 75C700         1028             MOV     EADRH,#00H
00FB 75C61A         1029             MOV     EADRL,#01AH
00FE 75B901         1030             MOV     ECON,#01H
0101 7800     F     1031             MOV     R0,#LOW (TEMP_1)
0103 120000   F     1032             LCALL   ?C?LLDIDATA
0106 7818           1033             MOV     R0,#018H
0108 120000   F     1034             LCALL   ?C?ULSHR
010B 8FBC           1035             MOV     EDATA1,R7
010D 7800     F     1036             MOV     R0,#LOW (TEMP_1)
010F 120000   F     1037             LCALL   ?C?LLDIDATA
0112 7810           1038             MOV     R0,#010H
0114 120000   F     1039             LCALL   ?C?ULSHR
0117 8FBD           1040             MOV     EDATA2,R7
0119 7800     F     1041             MOV     R0,#LOW (TEMP_1)
A51 MACRO ASSEMBLER  MAIN_BKCD                                                            12/02/2009 12:07:33 PAGE    17

011B 120000   F     1042             LCALL   ?C?LLDIDATA
011E 7808           1043             MOV     R0,#08H
0120 120000   F     1044             LCALL   ?C?ULSHR
0123 8FBE           1045             MOV     EDATA3,R7
0125 7800     F     1046             MOV     R0,#LOW (TEMP_1)
0127 120000   F     1047             LCALL   ?C?LLDIDATA
012A 8FBF           1048             MOV     EDATA4,R7
012C 75B902         1049             MOV     ECON,#02H
012F 75C700         1050             MOV     EADRH,#00H
0132 D2AF           1051             SETB    EA
                    1052     ;       }
                    1053                             ; SOURCE LINE # 186
0134                1054     ?C0004:
                    1055     ;   
                    1056     ;       j=buf_sh[3];
                    1057                             ; SOURCE LINE # 188
0134 900000   F     1058             MOV     DPTR,#buf_sh+03H
0137 E0             1059             MOVX    A,@DPTR
0138 FF             1060             MOV     R7,A
0139 7800     F     1061             MOV     R0,#LOW (j)
013B F6             1062             MOV     @R0,A
                    1063     ;       if (j!=0xFF)
                    1064                             ; SOURCE LINE # 189
013C F4             1065             CPL     A
013D 6054           1066             JZ      ?C0006
                    1067     ;       {       TEMP_1=BUF_T[j];
                    1068                             ; SOURCE LINE # 190
013F E6             1069             MOV     A,@R0
0140 25E0           1070             ADD     A,ACC
0142 25E0           1071             ADD     A,ACC
0144 2400     F     1072             ADD     A,#LOW (BUF_T)
0146 F582           1073             MOV     DPL,A
0148 E4             1074             CLR     A
0149 3400     F     1075             ADDC    A,#HIGH (BUF_T)
014B F583           1076             MOV     DPH,A
014D 120000   F     1077             LCALL   ?C?LLDXDATA
0150 7800     F     1078             MOV     R0,#LOW (TEMP_1)
0152 120000   F     1079             LCALL   ?C?LSTIDATA
                    1080     ;               FUM_Epr_Wrout((0x16C-0x100)>>2,TEMP_1>>24,TEMP_1>>16,TEMP_1>>8,TEMP_1)
                    1081                             ; SOURCE LINE # 191
0155 C2AF           1082             CLR     EA
0157 75C700         1083             MOV     EADRH,#00H
015A 75C61B         1084             MOV     EADRL,#01BH
015D 75B901         1085             MOV     ECON,#01H
0160 7800     F     1086             MOV     R0,#LOW (TEMP_1)
0162 120000   F     1087             LCALL   ?C?LLDIDATA
0165 7818           1088             MOV     R0,#018H
0167 120000   F     1089             LCALL   ?C?ULSHR
016A 8FBC           1090             MOV     EDATA1,R7
016C 7800     F     1091             MOV     R0,#LOW (TEMP_1)
016E 120000   F     1092             LCALL   ?C?LLDIDATA
0171 7810           1093             MOV     R0,#010H
0173 120000   F     1094             LCALL   ?C?ULSHR
0176 8FBD           1095             MOV     EDATA2,R7
0178 7800     F     1096             MOV     R0,#LOW (TEMP_1)
017A 120000   F     1097             LCALL   ?C?LLDIDATA
017D 7808           1098             MOV     R0,#08H
017F 120000   F     1099             LCALL   ?C?ULSHR
0182 8FBE           1100             MOV     EDATA3,R7
0184 7800     F     1101             MOV     R0,#LOW (TEMP_1)
0186 120000   F     1102             LCALL   ?C?LLDIDATA
0189 8FBF           1103             MOV     EDATA4,R7
018B 75B902         1104             MOV     ECON,#02H
018E 75C700         1105             MOV     EADRH,#00H
0191 D2AF           1106             SETB    EA
                    1107     ;       }
A51 MACRO ASSEMBLER  MAIN_BKCD                                                            12/02/2009 12:07:33 PAGE    18

                    1108                             ; SOURCE LINE # 192
0193                1109     ?C0006:
                    1110     ;       
                    1111     ;        while (st_ser==40)
                    1112                             ; SOURCE LINE # 194
0193 900000   F     1113             MOV     DPTR,#st_ser
0196 E0             1114             MOVX    A,@DPTR
0197 B42804         1115             CJNE    A,#028H,?C0007
                    1116     ;        EA = 0;
                    1117                             ; SOURCE LINE # 195
019A C2AF           1118             CLR     EA
019C 80F5           1119             SJMP    ?C0006
019E                1120     ?C0007:
                    1121     ;        WDWR=1;
                    1122                             ; SOURCE LINE # 196
019E D2C0           1123             SETB    WDWR
                    1124     ;        WDCON=0x03;  
                    1125                             ; SOURCE LINE # 197
01A0 75C003         1126             MOV     WDCON,#03H
                    1127     ;        EA = 1;                    
                    1128                             ; SOURCE LINE # 198
01A3 D2AF           1129             SETB    EA
                    1130     ; 
                    1131     ; 
                    1132     ; }
                    1133                             ; SOURCE LINE # 201
01A5 D007           1134             POP     AR7
01A7 D006           1135             POP     AR6
01A9 D005           1136             POP     AR5
01AB D004           1137             POP     AR4
01AD D000           1138             POP     AR0
01AF D0D0           1139             POP     PSW
01B1 D082           1140             POP     DPL
01B3 D083           1141             POP     DPH
01B5 D0F0           1142             POP     B
01B7 D0E0           1143             POP     ACC
01B9 32             1144             RETI    
                    1145     ; END OF intIE
                    1146     
----                1147     CSEG    AT      0001BH
001B 020000   F     1148             LJMP    timer1int
                    1149     
                    1150     ; 
                    1151     ; void timer1int (void) interrupt 3 using 1
                    1152     
----                1153             RSEG  ?PR?timer1int?MAIN_BKCD
                    1154             USING   1
0000                1155     timer1int:
0000 C0E0           1156             PUSH    ACC
0002 C0F0           1157             PUSH    B
0004 C083           1158             PUSH    DPH
0006 C082           1159             PUSH    DPL
0008 C0D0           1160             PUSH    PSW
                    1161             USING   1
000A 75D008         1162             MOV     PSW,#08H
                    1163                             ; SOURCE LINE # 203
                    1164     ; {
                    1165     ;  // TF1=0;
                    1166     ;  // TL1 = -0;//0xC4;//-200;
                    1167     ;  // TH1 = -49;//-1;
                    1168     ; 
                    1169     ;  CNT_T++;
                    1170                             ; SOURCE LINE # 209
000D 900000   F     1171             MOV     DPTR,#CNT_T
0010 120000   F     1172             LCALL   ?C?LLDXDATA
0013 EF             1173             MOV     A,R7
A51 MACRO ASSEMBLER  MAIN_BKCD                                                            12/02/2009 12:07:33 PAGE    19

0014 2401           1174             ADD     A,#01H
0016 FF             1175             MOV     R7,A
0017 E4             1176             CLR     A
0018 3E             1177             ADDC    A,R6
0019 FE             1178             MOV     R6,A
001A E4             1179             CLR     A
001B 3D             1180             ADDC    A,R5
001C FD             1181             MOV     R5,A
001D E4             1182             CLR     A
001E 3C             1183             ADDC    A,R4
001F FC             1184             MOV     R4,A
0020 900000   F     1185             MOV     DPTR,#CNT_T
0023 120000   F     1186             LCALL   ?C?LSTXDATA
                    1187     ; 
                    1188     ;  priem++;
                    1189                             ; SOURCE LINE # 211
0026 900000   F     1190             MOV     DPTR,#priem
0029 E0             1191             MOVX    A,@DPTR
002A 04             1192             INC     A
002B F0             1193             MOVX    @DPTR,A
                    1194     ;  if ((priem>2)&(t==0)&(st_ser==5))
                    1195                             ; SOURCE LINE # 212
002C 200004   F     1196             JB      t,?C0010
002F 7F01           1197             MOV     R7,#01H
0031 8002           1198             SJMP    ?C0011
0033                1199     ?C0010:
0033 7F00           1200             MOV     R7,#00H
0035                1201     ?C0011:
0035 900000   F     1202             MOV     DPTR,#priem
0038 E0             1203             MOVX    A,@DPTR
0039 D3             1204             SETB    C
003A 9402           1205             SUBB    A,#02H
003C 4004           1206             JC      ?C0012
003E 7E01           1207             MOV     R6,#01H
0040 8002           1208             SJMP    ?C0013
0042                1209     ?C0012:
0042 7E00           1210             MOV     R6,#00H
0044                1211     ?C0013:
0044 EE             1212             MOV     A,R6
0045 5F             1213             ANL     A,R7
0046 FF             1214             MOV     R7,A
0047 900000   F     1215             MOV     DPTR,#st_ser
004A E0             1216             MOVX    A,@DPTR
004B FE             1217             MOV     R6,A
004C B40504         1218             CJNE    A,#05H,?C0014
004F 7D01           1219             MOV     R5,#01H
0051 8002           1220             SJMP    ?C0015
0053                1221     ?C0014:
0053 7D00           1222             MOV     R5,#00H
0055                1223     ?C0015:
0055 ED             1224             MOV     A,R5
0056 5F             1225             ANL     A,R7
0057 6004           1226             JZ      ?C0009
                    1227     ;  {nr1=0;}
                    1228                             ; SOURCE LINE # 213
0059 7800     F     1229             MOV     R0,#LOW (nr1)
005B 7600           1230             MOV     @R0,#00H
005D                1231     ?C0009:
                    1232     ; 
                    1233     ;  mi++;
                    1234                             ; SOURCE LINE # 215
005D 900000   F     1235             MOV     DPTR,#mi
0060 E4             1236             CLR     A
0061 75F001         1237             MOV     B,#01H
0064 120000   F     1238             LCALL   ?C?IILDX
                    1239     ;  if (mi==4000) 
A51 MACRO ASSEMBLER  MAIN_BKCD                                                            12/02/2009 12:07:33 PAGE    20

                    1240                             ; SOURCE LINE # 216
0067 900000   F     1241             MOV     DPTR,#mi
006A E0             1242             MOVX    A,@DPTR
006B FC             1243             MOV     R4,A
006C A3             1244             INC     DPTR
006D E0             1245             MOVX    A,@DPTR
006E FD             1246             MOV     R5,A
006F BC0F11         1247             CJNE    R4,#0FH,?C0016
0072 BDA00E         1248             CJNE    R5,#0A0H,?C0016
                    1249     ;  {
                    1250                             ; SOURCE LINE # 217
                    1251     ;   P2|= 1 << 5; // установка бита 3
                    1252                             ; SOURCE LINE # 218
0075 43A020         1253             ORL     P2,#020H
                    1254     ;   //mi=0;
                    1255     ;   mi1=0;
                    1256                             ; SOURCE LINE # 220
0078 900000   F     1257             MOV     DPTR,#mi1
007B E4             1258             CLR     A
007C F0             1259             MOVX    @DPTR,A
007D A3             1260             INC     DPTR
007E F0             1261             MOVX    @DPTR,A
                    1262     ;   ep2=1;
                    1263                             ; SOURCE LINE # 221
007F D200     F     1264             SETB    ep2
                    1265     ;  }
                    1266                             ; SOURCE LINE # 222
0081 8015           1267             SJMP    ?C0017
0083                1268     ?C0016:
                    1269     ;  else
                    1270     ;  {
                    1271                             ; SOURCE LINE # 224
                    1272     ;   if (mi>8000) 
                    1273                             ; SOURCE LINE # 225
0083 D3             1274             SETB    C
0084 ED             1275             MOV     A,R5
0085 9440           1276             SUBB    A,#040H
0087 EC             1277             MOV     A,R4
0088 941F           1278             SUBB    A,#01FH
008A 400C           1279             JC      ?C0017
                    1280     ;  {
                    1281                             ; SOURCE LINE # 226
                    1282     ;   P2&= !(1 << 5); // сброс бита 3
                    1283                             ; SOURCE LINE # 227
008C 75A000         1284             MOV     P2,#00H
                    1285     ;   mi=0;
                    1286                             ; SOURCE LINE # 228
008F 900000   F     1287             MOV     DPTR,#mi
0092 E4             1288             CLR     A
0093 F0             1289             MOVX    @DPTR,A
0094 A3             1290             INC     DPTR
0095 F0             1291             MOVX    @DPTR,A
                    1292     ;   ep2=0;
                    1293                             ; SOURCE LINE # 229
0096 C200     F     1294             CLR     ep2
                    1295     ;  }
                    1296                             ; SOURCE LINE # 230
                    1297     ;  }
                    1298                             ; SOURCE LINE # 231
0098                1299     ?C0017:
                    1300     ; 
                    1301     ;       ens=1;
                    1302                             ; SOURCE LINE # 233
0098 D200     F     1303             SETB    ens
                    1304     ;       TF1=0;
                    1305                             ; SOURCE LINE # 234
A51 MACRO ASSEMBLER  MAIN_BKCD                                                            12/02/2009 12:07:33 PAGE    21

009A C28F           1306             CLR     TF1
                    1307     ;       TH1=R_INT_TMR1_H;
                    1308                             ; SOURCE LINE # 235
009C 758DE7         1309             MOV     TH1,#0E7H
                    1310     ;       TL1=R_INT_TMR1_L;
                    1311                             ; SOURCE LINE # 236
009F 758BC0         1312             MOV     TL1,#0C0H
                    1313     ;       
                    1314     ;       
                    1315     ;       if ((tms==0)&(st_ser==5))
                    1316                             ; SOURCE LINE # 239
00A2 EE             1317             MOV     A,R6
00A3 B40504         1318             CJNE    A,#05H,?C0020
00A6 7F01           1319             MOV     R7,#01H
00A8 8002           1320             SJMP    ?C0021
00AA                1321     ?C0020:
00AA 7F00           1322             MOV     R7,#00H
00AC                1323     ?C0021:
00AC 7800     F     1324             MOV     R0,#LOW (tms)
00AE E6             1325             MOV     A,@R0
00AF FC             1326             MOV     R4,A
00B0 7004           1327             JNZ     ?C0022
00B2 7E01           1328             MOV     R6,#01H
00B4 8002           1329             SJMP    ?C0023
00B6                1330     ?C0022:
00B6 7E00           1331             MOV     R6,#00H
00B8                1332     ?C0023:
00B8 EE             1333             MOV     A,R6
00B9 5F             1334             ANL     A,R7
00BA 7003           1335             JNZ     $ + 5H
00BC 020000   F     1336             LJMP    ?C0019
                    1337     ;       {
                    1338                             ; SOURCE LINE # 240
                    1339     ;                       
                    1340     ;                       if (s_otv!=0xFF)
                    1341                             ; SOURCE LINE # 242
00BF 900000   F     1342             MOV     DPTR,#s_otv
00C2 E0             1343             MOVX    A,@DPTR
00C3 FF             1344             MOV     R7,A
00C4 F4             1345             CPL     A
00C5 7003           1346             JNZ     $ + 5H
00C7 020000   F     1347             LJMP    ?C0031
                    1348     ;                       {
                    1349                             ; SOURCE LINE # 243
                    1350     ;                       st_ser=20;
                    1351                             ; SOURCE LINE # 244
00CA 900000   F     1352             MOV     DPTR,#st_ser
00CD 7414           1353             MOV     A,#014H
00CF F0             1354             MOVX    @DPTR,A
                    1355     ;                       tms=s_otv+s_otv;
                    1356                             ; SOURCE LINE # 245
00D0 EF             1357             MOV     A,R7
00D1 2F             1358             ADD     A,R7
00D2 7800     F     1359             MOV     R0,#LOW (tms)
00D4 F6             1360             MOV     @R0,A
                    1361     ;                       for(i=0;i<len_o;i++)
                    1362                             ; SOURCE LINE # 246
00D5 7800     F     1363             MOV     R0,#LOW (i)
00D7 7600           1364             MOV     @R0,#00H
00D9                1365     ?C0025:
00D9 7800     F     1366             MOV     R0,#LOW (i)
00DB E6             1367             MOV     A,@R0
00DC C3             1368             CLR     C
00DD 9500     F     1369             SUBB    A,len_o
00DF 501C           1370             JNC     ?C0026
                    1371     ;                       {
A51 MACRO ASSEMBLER  MAIN_BKCD                                                            12/02/2009 12:07:33 PAGE    22

                    1372                             ; SOURCE LINE # 247
                    1373     ;                         bufout[i+6] = lbuf[i];
                    1374                             ; SOURCE LINE # 248
00E1 E6             1375             MOV     A,@R0
00E2 FF             1376             MOV     R7,A
00E3 2400           1377             ADD     A,#LOW (lbuf)
00E5 F582           1378             MOV     DPL,A
00E7 E4             1379             CLR     A
00E8 3400           1380             ADDC    A,#HIGH (lbuf)
00EA F583           1381             MOV     DPH,A
00EC E0             1382             MOVX    A,@DPTR
00ED FE             1383             MOV     R6,A
00EE 7446           1384             MOV     A,#LOW (bufout+06H)
00F0 2F             1385             ADD     A,R7
00F1 F582           1386             MOV     DPL,A
00F3 E4             1387             CLR     A
00F4 3400           1388             ADDC    A,#HIGH (bufout+06H)
00F6 F583           1389             MOV     DPH,A
00F8 EE             1390             MOV     A,R6
00F9 F0             1391             MOVX    @DPTR,A
                    1392     ;                       }  
                    1393                             ; SOURCE LINE # 249
00FA 06             1394             INC     @R0
00FB 80DC           1395             SJMP    ?C0025
00FD                1396     ?C0026:
                    1397     ;                       
                    1398     ;            if (flz!=0xFF)
                    1399                             ; SOURCE LINE # 251
00FD 900000   F     1400             MOV     DPTR,#flz
0100 E0             1401             MOVX    A,@DPTR
0101 FF             1402             MOV     R7,A
0102 F4             1403             CPL     A
0103 7003           1404             JNZ     $ + 5H
0105 020000   F     1405             LJMP    ?C0028
                    1406     ;                       {
                    1407                             ; SOURCE LINE # 252
                    1408     ;                               i=flz;
                    1409                             ; SOURCE LINE # 253
0108 7800     F     1410             MOV     R0,#LOW (i)
010A A60F           1411             MOV     @R0,AR7
                    1412     ;                               if (z0==4)
                    1413                             ; SOURCE LINE # 254
010C 900000   F     1414             MOV     DPTR,#z0
010F E0             1415             MOVX    A,@DPTR
0110 FF             1416             MOV     R7,A
0111 B40443         1417             CJNE    A,#04H,?C0029
                    1418     ;                               {       bufout[i+6]=z1;
                    1419                             ; SOURCE LINE # 255
0114 A3             1420             INC     DPTR
0115 E0             1421             MOVX    A,@DPTR
0116 FE             1422             MOV     R6,A
0117 E6             1423             MOV     A,@R0
0118 FD             1424             MOV     R5,A
0119 2446           1425             ADD     A,#LOW (bufout+06H)
011B F582           1426             MOV     DPL,A
011D E4             1427             CLR     A
011E 3400           1428             ADDC    A,#HIGH (bufout+06H)
0120 F583           1429             MOV     DPH,A
0122 EE             1430             MOV     A,R6
0123 F0             1431             MOVX    @DPTR,A
                    1432     ;                                       bufout[i+7]=z2;
                    1433                             ; SOURCE LINE # 256
0124 900000   F     1434             MOV     DPTR,#z2
0127 E0             1435             MOVX    A,@DPTR
0128 FE             1436             MOV     R6,A
0129 7447           1437             MOV     A,#LOW (bufout+07H)
A51 MACRO ASSEMBLER  MAIN_BKCD                                                            12/02/2009 12:07:33 PAGE    23

012B 2D             1438             ADD     A,R5
012C F582           1439             MOV     DPL,A
012E E4             1440             CLR     A
012F 3400           1441             ADDC    A,#HIGH (bufout+07H)
0131 F583           1442             MOV     DPH,A
0133 EE             1443             MOV     A,R6
0134 F0             1444             MOVX    @DPTR,A
                    1445     ;                                       bufout[i+8]=z3;
                    1446                             ; SOURCE LINE # 257
0135 900000   F     1447             MOV     DPTR,#z3
0138 E0             1448             MOVX    A,@DPTR
0139 FE             1449             MOV     R6,A
013A 7448           1450             MOV     A,#LOW (bufout+08H)
013C 2D             1451             ADD     A,R5
013D F582           1452             MOV     DPL,A
013F E4             1453             CLR     A
0140 3400           1454             ADDC    A,#HIGH (bufout+08H)
0142 F583           1455             MOV     DPH,A
0144 EE             1456             MOV     A,R6
0145 F0             1457             MOVX    @DPTR,A
                    1458     ;                                       bufout[i+9]=z4;
                    1459                             ; SOURCE LINE # 258
0146 900000   F     1460             MOV     DPTR,#z4
0149 E0             1461             MOVX    A,@DPTR
014A FE             1462             MOV     R6,A
014B 7449           1463             MOV     A,#LOW (bufout+09H)
014D 2D             1464             ADD     A,R5
014E F582           1465             MOV     DPL,A
0150 E4             1466             CLR     A
0151 3400           1467             ADDC    A,#HIGH (bufout+09H)
0153 F583           1468             MOV     DPH,A
0155 EE             1469             MOV     A,R6
0156 F0             1470             MOVX    @DPTR,A
                    1471     ;                               }
                    1472                             ; SOURCE LINE # 259
0157                1473     ?C0029:
                    1474     ;                               if (z0==2)
                    1475                             ; SOURCE LINE # 260
0157 EF             1476             MOV     A,R7
0158 B40225         1477             CJNE    A,#02H,?C0030
                    1478     ;                               {
                    1479                             ; SOURCE LINE # 261
                    1480     ;                                       bufout[i+6]=z3;
                    1481                             ; SOURCE LINE # 262
015B 900000   F     1482             MOV     DPTR,#z3
015E E0             1483             MOVX    A,@DPTR
015F FF             1484             MOV     R7,A
0160 7800     F     1485             MOV     R0,#LOW (i)
0162 E6             1486             MOV     A,@R0
0163 FE             1487             MOV     R6,A
0164 2446           1488             ADD     A,#LOW (bufout+06H)
0166 F582           1489             MOV     DPL,A
0168 E4             1490             CLR     A
0169 3400           1491             ADDC    A,#HIGH (bufout+06H)
016B F583           1492             MOV     DPH,A
016D EF             1493             MOV     A,R7
016E F0             1494             MOVX    @DPTR,A
                    1495     ;                                       bufout[i+7]=z4;
                    1496                             ; SOURCE LINE # 263
016F 900000   F     1497             MOV     DPTR,#z4
0172 E0             1498             MOVX    A,@DPTR
0173 FF             1499             MOV     R7,A
0174 7447           1500             MOV     A,#LOW (bufout+07H)
0176 2E             1501             ADD     A,R6
0177 F582           1502             MOV     DPL,A
0179 E4             1503             CLR     A
A51 MACRO ASSEMBLER  MAIN_BKCD                                                            12/02/2009 12:07:33 PAGE    24

017A 3400           1504             ADDC    A,#HIGH (bufout+07H)
017C F583           1505             MOV     DPH,A
017E EF             1506             MOV     A,R7
017F F0             1507             MOVX    @DPTR,A
                    1508     ;                               }
                    1509                             ; SOURCE LINE # 264
0180                1510     ?C0030:
                    1511     ;                               flz=0xFF;
                    1512                             ; SOURCE LINE # 265
0180 900000   F     1513             MOV     DPTR,#flz
0183 74FF           1514             MOV     A,#0FFH
0185 F0             1515             MOVX    @DPTR,A
                    1516     ;                       }
                    1517                             ; SOURCE LINE # 266
0186                1518     ?C0028:
                    1519     ; 
                    1520     ;                   
                    1521     ;                       zbuf[1]=lineadd|0x80;
                    1522                             ; SOURCE LINE # 269
0186 E500     F     1523             MOV     A,lineadd
0188 4480           1524             ORL     A,#080H
018A F500     F     1525             MOV     zbuf+01H,A
                    1526     ;                       bufout[2]=dl_p+7;
                    1527                             ; SOURCE LINE # 270
018C 900000   F     1528             MOV     DPTR,#dl_p
018F E0             1529             MOVX    A,@DPTR
0190 FE             1530             MOV     R6,A
0191 2407           1531             ADD     A,#07H
0193 900042         1532             MOV     DPTR,#bufout+02H
0196 F0             1533             MOVX    @DPTR,A
                    1534     ;                       zbuf[3]=0x02;
                    1535                             ; SOURCE LINE # 271
0197 750002   F     1536             MOV     zbuf+03H,#02H
                    1537     ;                       zbuf[4]=0x00;
                    1538                             ; SOURCE LINE # 272
019A 750000   F     1539             MOV     zbuf+04H,#00H
                    1540     ;                       zbuf[5]=dl_p;
                    1541                             ; SOURCE LINE # 273
019D 8E00     F     1542             MOV     zbuf+05H,R6
                    1543     ;                       len_o=dl_p+6;
                    1544                             ; SOURCE LINE # 274
019F 900000   F     1545             MOV     DPTR,#dl_p
01A2 E0             1546             MOVX    A,@DPTR
01A3 2406           1547             ADD     A,#06H
01A5 F500     F     1548             MOV     len_o,A
                    1549     ;                       zbuf[6]=0x00;
                    1550                             ; SOURCE LINE # 275
01A7 750000   F     1551             MOV     zbuf+06H,#00H
                    1552     ; 
                    1553     ;                       tmo=1;
                    1554                             ; SOURCE LINE # 277
01AA 7800     F     1555             MOV     R0,#LOW (tmo)
01AC 7601           1556             MOV     @R0,#01H
                    1557     ;                       t=1;
                    1558                             ; SOURCE LINE # 278
01AE D200     F     1559             SETB    t
                    1560     ;                  }
                    1561                             ; SOURCE LINE # 279
                    1562     ;       }
                    1563                             ; SOURCE LINE # 280
01B0 801E           1564             SJMP    ?C0031
01B2                1565     ?C0019:
                    1566     ;       else 
                    1567     ;               if ((tms!=0xFF)&(st_ser==5))
                    1568                             ; SOURCE LINE # 282
01B2 900000   F     1569             MOV     DPTR,#st_ser
A51 MACRO ASSEMBLER  MAIN_BKCD                                                            12/02/2009 12:07:33 PAGE    25

01B5 E0             1570             MOVX    A,@DPTR
01B6 B40504         1571             CJNE    A,#05H,?C0033
01B9 7F01           1572             MOV     R7,#01H
01BB 8002           1573             SJMP    ?C0034
01BD                1574     ?C0033:
01BD 7F00           1575             MOV     R7,#00H
01BF                1576     ?C0034:
01BF EC             1577             MOV     A,R4
01C0 F4             1578             CPL     A
01C1 6004           1579             JZ      ?C0035
01C3 7E01           1580             MOV     R6,#01H
01C5 8002           1581             SJMP    ?C0036
01C7                1582     ?C0035:
01C7 7E00           1583             MOV     R6,#00H
01C9                1584     ?C0036:
01C9 EE             1585             MOV     A,R6
01CA 5F             1586             ANL     A,R7
01CB 6003           1587             JZ      ?C0031
                    1588     ;                               tms--;
                    1589                             ; SOURCE LINE # 283
01CD 7800     F     1590             MOV     R0,#LOW (tms)
01CF 16             1591             DEC     @R0
01D0                1592     ?C0031:
                    1593     ; 
                    1594     ;       if (tmo==1)
                    1595                             ; SOURCE LINE # 285
01D0 7800     F     1596             MOV     R0,#LOW (tmo)
01D2 E6             1597             MOV     A,@R0
01D3 6401           1598             XRL     A,#01H
01D5 702D           1599             JNZ     ?C0037
                    1600     ;       {
                    1601                             ; SOURCE LINE # 286
                    1602     ;                       if ((t==1)&(st_ser==20))
                    1603                             ; SOURCE LINE # 287
01D7 900000   F     1604             MOV     DPTR,#st_ser
01DA E0             1605             MOVX    A,@DPTR
01DB B41404         1606             CJNE    A,#014H,?C0039
01DE 7F01           1607             MOV     R7,#01H
01E0 8002           1608             SJMP    ?C0040
01E2                1609     ?C0039:
01E2 7F00           1610             MOV     R7,#00H
01E4                1611     ?C0040:
01E4 300004   F     1612             JNB     t,?C0041
01E7 7E01           1613             MOV     R6,#01H
01E9 8002           1614             SJMP    ?C0042
01EB                1615     ?C0041:
01EB 7E00           1616             MOV     R6,#00H
01ED                1617     ?C0042:
01ED EE             1618             MOV     A,R6
01EE 5F             1619             ANL     A,R7
01EF 601F           1620             JZ      ?C0043
                    1621     ;                       {
                    1622                             ; SOURCE LINE # 288
                    1623     ;                       st_ser=30;
                    1624                             ; SOURCE LINE # 289
01F1 900000   F     1625             MOV     DPTR,#st_ser
01F4 741E           1626             MOV     A,#01EH
01F6 F0             1627             MOVX    @DPTR,A
                    1628     ;                       WR=1;
                    1629                             ; SOURCE LINE # 290
01F7 D2B6           1630             SETB    WR
                    1631     ;                       nro=1;
                    1632                             ; SOURCE LINE # 291
01F9 7800     F     1633             MOV     R0,#LOW (nro)
01FB 7601           1634             MOV     @R0,#01H
                    1635     ;               //      kon_t=1;
A51 MACRO ASSEMBLER  MAIN_BKCD                                                            12/02/2009 12:07:33 PAGE    26

                    1636     ;                       SBUF=0x7E;
                    1637                             ; SOURCE LINE # 293
01FD 75997E         1638             MOV     SBUF,#07EH
                    1639     ;                       t=0;
                    1640                             ; SOURCE LINE # 294
0200 C200     F     1641             CLR     t
                    1642     ;                       }
                    1643                             ; SOURCE LINE # 295
                    1644     ;       }
                    1645                             ; SOURCE LINE # 296
0202 800C           1646             SJMP    ?C0043
0204                1647     ?C0037:
                    1648     ;                else 
                    1649     ;       {
                    1650                             ; SOURCE LINE # 298
                    1651     ;                       t11=1;
                    1652                             ; SOURCE LINE # 299
0204 D200     F     1653             SETB    t11
                    1654     ;                       if (st_ser==20)
                    1655                             ; SOURCE LINE # 300
0206 900000   F     1656             MOV     DPTR,#st_ser
0209 E0             1657             MOVX    A,@DPTR
020A B41403         1658             CJNE    A,#014H,?C0043
                    1659     ;                               tmo--;
                    1660                             ; SOURCE LINE # 301
020D 7800     F     1661             MOV     R0,#LOW (tmo)
020F 16             1662             DEC     @R0
                    1663     ;       }
                    1664                             ; SOURCE LINE # 302
0210                1665     ?C0043:
                    1666     ;                                               
                    1667     ; 
                    1668     ; 
                    1669     ; 
                    1670     ;       copy_p1=copy_p;
                    1671                             ; SOURCE LINE # 307
0210 850000   F     1672             MOV     copy_p1,copy_p
0213 850000   F     1673             MOV     copy_p1+01H,copy_p+01H
                    1674     ;       copy_p=P0;
                    1675                             ; SOURCE LINE # 308
0216 AF80           1676             MOV     R7,P0
0218 750000   F     1677             MOV     copy_p,#00H
021B 8F00     F     1678             MOV     copy_p+01H,R7
                    1679     ; 
                    1680     ; //    sec1++;
                    1681     ; //    sec2++;
                    1682     ; 
                    1683     ; //    MM[1]=0x20;
                    1684     ; //    MM[2]=0x10;
                    1685     ; 
                    1686     ; 
                    1687     ; 
                    1688     ;       if (MM[1]!=0)
                    1689                             ; SOURCE LINE # 318
021D 7800     F     1690             MOV     R0,#LOW (MM+01H)
021F E6             1691             MOV     A,@R0
0220 FF             1692             MOV     R7,A
0221 7003           1693             JNZ     $ + 5H
0223 020000   F     1694             LJMP    ?C0045
                    1695     ;       {//     sec1++; 
                    1696                             ; SOURCE LINE # 319
                    1697     ;               rasx1_t++;
                    1698                             ; SOURCE LINE # 320
0226 7800     F     1699             MOV     R0,#LOW (rasx1_t+01H)
0228 06             1700             INC     @R0
0229 E6             1701             MOV     A,@R0
A51 MACRO ASSEMBLER  MAIN_BKCD                                                            12/02/2009 12:07:33 PAGE    27

022A 18             1702             DEC     R0
022B 7001           1703             JNZ     ?C0721
022D 06             1704             INC     @R0
022E                1705     ?C0721:
                    1706     ;               if (((copy_p&MM[1])==MM[1])&((copy_p1&MM[1])!=MM[1]))
                    1707                             ; SOURCE LINE # 321
022E E500     F     1708             MOV     A,copy_p+01H
0230 5F             1709             ANL     A,R7
0231 B50F04         1710             CJNE    A,AR7,?C0047
0234 7F01           1711             MOV     R7,#01H
0236 8002           1712             SJMP    ?C0048
0238                1713     ?C0047:
0238 7F00           1714             MOV     R7,#00H
023A                1715     ?C0048:
023A 7800     F     1716             MOV     R0,#LOW (MM+01H)
023C E6             1717             MOV     A,@R0
023D FD             1718             MOV     R5,A
023E 7C00           1719             MOV     R4,#00H
0240 E500     F     1720             MOV     A,copy_p1+01H
0242 5D             1721             ANL     A,R5
0243 6D             1722             XRL     A,R5
0244 7001           1723             JNZ     ?C0723
0246 E4             1724             CLR     A
0247                1725     ?C0723:
0247 6004           1726             JZ      ?C0049
0249 7E01           1727             MOV     R6,#01H
024B 8002           1728             SJMP    ?C0050
024D                1729     ?C0049:
024D 7E00           1730             MOV     R6,#00H
024F                1731     ?C0050:
024F EE             1732             MOV     A,R6
0250 5F             1733             ANL     A,R7
0251 7003           1734             JNZ     $ + 5H
0253 020000   F     1735             LJMP    ?C0046
                    1736     ;               {  
                    1737                             ; SOURCE LINE # 322
                    1738     ;                       rasx1_s++; 
                    1739                             ; SOURCE LINE # 323
0256 900000   F     1740             MOV     DPTR,#rasx1_s
0259 120000   F     1741             LCALL   ?C?LLDXDATA
025C EF             1742             MOV     A,R7
025D 2401           1743             ADD     A,#01H
025F FF             1744             MOV     R7,A
0260 E4             1745             CLR     A
0261 3E             1746             ADDC    A,R6
0262 FE             1747             MOV     R6,A
0263 E4             1748             CLR     A
0264 3D             1749             ADDC    A,R5
0265 FD             1750             MOV     R5,A
0266 E4             1751             CLR     A
0267 3C             1752             ADDC    A,R4
0268 FC             1753             MOV     R4,A
0269 900000   F     1754             MOV     DPTR,#rasx1_s
026C 120000   F     1755             LCALL   ?C?LSTXDATA
                    1756     ;                       
                    1757     ;                       if (er1==1)
                    1758                             ; SOURCE LINE # 325
026F 200003   F     1759             JB      er1,$ + 6H
0272 020000   F     1760             LJMP    ?C0051
                    1761     ;                       {
                    1762                             ; SOURCE LINE # 326
                    1763     ;                                       if  (rasx1_t<rasx1-rasx1/20)
                    1764                             ; SOURCE LINE # 327
0275 7800     F     1765             MOV     R0,#LOW (rasx1)
0277 E6             1766             MOV     A,@R0
0278 FA             1767             MOV     R2,A
A51 MACRO ASSEMBLER  MAIN_BKCD                                                            12/02/2009 12:07:33 PAGE    28

0279 08             1768             INC     R0
027A E6             1769             MOV     A,@R0
027B FB             1770             MOV     R3,A
027C 7C00           1771             MOV     R4,#00H
027E 7D14           1772             MOV     R5,#014H
0280 FF             1773             MOV     R7,A
0281 AE0A           1774             MOV     R6,AR2
0283 120000   F     1775             LCALL   ?C?UIDIV
0286 C3             1776             CLR     C
0287 EB             1777             MOV     A,R3
0288 9F             1778             SUBB    A,R7
0289 FD             1779             MOV     R5,A
028A EA             1780             MOV     A,R2
028B 9E             1781             SUBB    A,R6
028C FC             1782             MOV     R4,A
028D 7800     F     1783             MOV     R0,#LOW (rasx1_t)
028F E6             1784             MOV     A,@R0
0290 FA             1785             MOV     R2,A
0291 08             1786             INC     R0
0292 E6             1787             MOV     A,@R0
0293 FB             1788             MOV     R3,A
0294 C3             1789             CLR     C
0295 9D             1790             SUBB    A,R5
0296 EA             1791             MOV     A,R2
0297 9C             1792             SUBB    A,R4
0298 500F           1793             JNC     ?C0052
                    1794     ;                                       {
                    1795                             ; SOURCE LINE # 328
                    1796     ;                                               //rasx1=rasx1_t;
                    1797     ;                                               //rasx1_t=0;
                    1798     ;                                               r1=0;
                    1799                             ; SOURCE LINE # 331
029A 750000   F     1800             MOV     r1?+03H,#00H
029D 750000   F     1801             MOV     r1?+02H,#00H
02A0 750000   F     1802             MOV     r1?+01H,#00H
02A3 750000   F     1803             MOV     r1?,#00H
                    1804     ;                                               bufcht1[1]=0;
                    1805                             ; SOURCE LINE # 332
02A6 750000   F     1806             MOV     bufcht1+01H,#00H
                    1807     ;                                       }
                    1808                             ; SOURCE LINE # 333
02A9                1809     ?C0052:
                    1810     ;                               
                    1811     ;                               if (bufcht1[1]<A_N1)
                    1812                             ; SOURCE LINE # 335
02A9 C3             1813             CLR     C
02AA E500     F     1814             MOV     A,bufcht1+01H
02AC 7800     F     1815             MOV     R0,#LOW (A_N1+01H)
02AE 96             1816             SUBB    A,@R0
02AF E4             1817             CLR     A
02B0 18             1818             DEC     R0
02B1 96             1819             SUBB    A,@R0
02B2 5068           1820             JNC     ?C0053
                    1821     ;                               {       if (r1+rasx1_t<r1)
                    1822                             ; SOURCE LINE # 336
02B4 EB             1823             MOV     A,R3
02B5 2500     F     1824             ADD     A,r1?+03H
02B7 FF             1825             MOV     R7,A
02B8 EA             1826             MOV     A,R2
02B9 3500     F     1827             ADDC    A,r1?+02H
02BB FE             1828             MOV     R6,A
02BC E4             1829             CLR     A
02BD 3500     F     1830             ADDC    A,r1?+01H
02BF FD             1831             MOV     R5,A
02C0 E4             1832             CLR     A
02C1 3500     F     1833             ADDC    A,r1?
A51 MACRO ASSEMBLER  MAIN_BKCD                                                            12/02/2009 12:07:33 PAGE    29

02C3 FC             1834             MOV     R4,A
02C4 AB00     F     1835             MOV     R3,r1?+03H
02C6 AA00     F     1836             MOV     R2,r1?+02H
02C8 A900     F     1837             MOV     R1,r1?+01H
02CA A800     F     1838             MOV     R0,r1?
02CC D3             1839             SETB    C
02CD 120000   F     1840             LCALL   ?C?ULCMP
02D0 400B           1841             JC      ?C0054
                    1842     ;                                       {       A_N1=bufcht1[1];        
                    1843                             ; SOURCE LINE # 337
02D2 AF00     F     1844             MOV     R7,bufcht1+01H
02D4 7800     F     1845             MOV     R0,#LOW (A_N1)
02D6 7600           1846             MOV     @R0,#00H
02D8 08             1847             INC     R0
02D9 A60F           1848             MOV     @R0,AR7
                    1849     ;                                       }                                                
                    1850                             ; SOURCE LINE # 338
02DB 8023           1851             SJMP    ?C0055
02DD                1852     ?C0054:
                    1853     ;                                       else 
                    1854     ;                                       {       bufcht1[1]++;
                    1855                             ; SOURCE LINE # 340
02DD 0500     F     1856             INC     bufcht1+01H
                    1857     ;                                               r1=r1+rasx1_t;
                    1858                             ; SOURCE LINE # 341
02DF 7800     F     1859             MOV     R0,#LOW (rasx1_t)
02E1 E6             1860             MOV     A,@R0
02E2 FE             1861             MOV     R6,A
02E3 08             1862             INC     R0
02E4 E6             1863             MOV     A,@R0
02E5 FF             1864             MOV     R7,A
02E6 E4             1865             CLR     A
02E7 FC             1866             MOV     R4,A
02E8 FD             1867             MOV     R5,A
02E9 E500     F     1868             MOV     A,r1?+03H
02EB 2F             1869             ADD     A,R7
02EC FF             1870             MOV     R7,A
02ED E500     F     1871             MOV     A,r1?+02H
02EF 3E             1872             ADDC    A,R6
02F0 FE             1873             MOV     R6,A
02F1 ED             1874             MOV     A,R5
02F2 3500     F     1875             ADDC    A,r1?+01H
02F4 FD             1876             MOV     R5,A
02F5 EC             1877             MOV     A,R4
02F6 3500     F     1878             ADDC    A,r1?
02F8 8F00     F     1879             MOV     r1?+03H,R7
02FA 8E00     F     1880             MOV     r1?+02H,R6
02FC 8D00     F     1881             MOV     r1?+01H,R5
02FE F500     F     1882             MOV     r1?,A
                    1883     ;                                       }
                    1884                             ; SOURCE LINE # 342
0300                1885     ?C0055:
                    1886     ;                                       rasx1=r1/bufcht1[1];
                    1887                             ; SOURCE LINE # 343
0300 AF00     F     1888             MOV     R7,bufcht1+01H
0302 AB0F           1889             MOV     R3,AR7
0304 E4             1890             CLR     A
0305 FA             1891             MOV     R2,A
0306 F9             1892             MOV     R1,A
0307 F8             1893             MOV     R0,A
0308 AF00     F     1894             MOV     R7,r1?+03H
030A AE00     F     1895             MOV     R6,r1?+02H
030C AD00     F     1896             MOV     R5,r1?+01H
030E AC00     F     1897             MOV     R4,r1?
0310 120000   F     1898             LCALL   ?C?ULDIV
0313 7800     F     1899             MOV     R0,#LOW (rasx1)
A51 MACRO ASSEMBLER  MAIN_BKCD                                                            12/02/2009 12:07:33 PAGE    30

0315 A60E           1900             MOV     @R0,AR6
0317 08             1901             INC     R0
0318 A60F           1902             MOV     @R0,AR7
                    1903     ;                                       rasx1_t=0;
                    1904                             ; SOURCE LINE # 344
                    1905     ;                               }
                    1906                             ; SOURCE LINE # 345
031A 804D           1907             SJMP    ?C0736
031C                1908     ?C0053:
                    1909     ;                               else 
                    1910     ;                               {               rasx1=r1/bufcht1[1];
                    1911                             ; SOURCE LINE # 347
031C AF00     F     1912             MOV     R7,bufcht1+01H
031E AB0F           1913             MOV     R3,AR7
0320 E4             1914             CLR     A
0321 FA             1915             MOV     R2,A
0322 F9             1916             MOV     R1,A
0323 F8             1917             MOV     R0,A
0324 AF00     F     1918             MOV     R7,r1?+03H
0326 AE00     F     1919             MOV     R6,r1?+02H
0328 AD00     F     1920             MOV     R5,r1?+01H
032A AC00     F     1921             MOV     R4,r1?
032C 120000   F     1922             LCALL   ?C?ULDIV
032F 7800     F     1923             MOV     R0,#LOW (rasx1)
0331 EE             1924             MOV     A,R6
0332 F6             1925             MOV     @R0,A
0333 08             1926             INC     R0
0334 EF             1927             MOV     A,R7
0335 F6             1928             MOV     @R0,A
                    1929     ;                                               r1=r1-rasx1+rasx1_t;
                    1930                             ; SOURCE LINE # 348
0336 FB             1931             MOV     R3,A
0337 C3             1932             CLR     C
0338 E500     F     1933             MOV     A,r1?+03H
033A 9B             1934             SUBB    A,R3
033B FF             1935             MOV     R7,A
033C E500     F     1936             MOV     A,r1?+02H
033E 9E             1937             SUBB    A,R6
033F FE             1938             MOV     R6,A
0340 E500     F     1939             MOV     A,r1?+01H
0342 9400           1940             SUBB    A,#00H
0344 FD             1941             MOV     R5,A
0345 E500     F     1942             MOV     A,r1?
0347 9400           1943             SUBB    A,#00H
0349 FC             1944             MOV     R4,A
034A C00C           1945             PUSH    AR4
034C A90D           1946             MOV     R1,AR5
034E AA0E           1947             MOV     R2,AR6
0350 AB0F           1948             MOV     R3,AR7
0352 7800     F     1949             MOV     R0,#LOW (rasx1_t)
0354 E6             1950             MOV     A,@R0
0355 FE             1951             MOV     R6,A
0356 08             1952             INC     R0
0357 E6             1953             MOV     A,@R0
0358 FF             1954             MOV     R7,A
0359 E4             1955             CLR     A
035A FC             1956             MOV     R4,A
035B FD             1957             MOV     R5,A
035C D008           1958             POP     AR0
035E 120000   F     1959             LCALL   ?C?LADD
0361 8F00     F     1960             MOV     r1?+03H,R7
0363 8E00     F     1961             MOV     r1?+02H,R6
0365 8D00     F     1962             MOV     r1?+01H,R5
0367 8C00     F     1963             MOV     r1?,R4
                    1964     ;                                               rasx1_t=0;
                    1965                             ; SOURCE LINE # 349
A51 MACRO ASSEMBLER  MAIN_BKCD                                                            12/02/2009 12:07:33 PAGE    31

0369                1966     ?C0736:
0369 7800     F     1967             MOV     R0,#LOW (rasx1_t)
036B 7600           1968             MOV     @R0,#00H
036D 08             1969             INC     R0
036E 7600           1970             MOV     @R0,#00H
                    1971     ;                               }
                    1972                             ; SOURCE LINE # 350
                    1973     ;       
                    1974     ;                       }
                    1975                             ; SOURCE LINE # 352
0370                1976     ?C0051:
                    1977     ;                       er1=1;
                    1978                             ; SOURCE LINE # 353
0370 D200     F     1979             SETB    er1
                    1980     ;               }
                    1981                             ; SOURCE LINE # 354
0372 803D           1982             SJMP    ?C0057
0374                1983     ?C0046:
                    1984     ;               else
                    1985     ;               {       
                    1986                             ; SOURCE LINE # 356
                    1987     ;                       if (rasx1_t>rasx1+rasx1/20)
                    1988                             ; SOURCE LINE # 357
0374 7800     F     1989             MOV     R0,#LOW (rasx1)
0376 E6             1990             MOV     A,@R0
0377 FA             1991             MOV     R2,A
0378 08             1992             INC     R0
0379 E6             1993             MOV     A,@R0
037A FB             1994             MOV     R3,A
037B 7C00           1995             MOV     R4,#00H
037D 7D14           1996             MOV     R5,#014H
037F FF             1997             MOV     R7,A
0380 AE0A           1998             MOV     R6,AR2
0382 120000   F     1999             LCALL   ?C?UIDIV
0385 EF             2000             MOV     A,R7
0386 2B             2001             ADD     A,R3
0387 FF             2002             MOV     R7,A
0388 EE             2003             MOV     A,R6
0389 3A             2004             ADDC    A,R2
038A FE             2005             MOV     R6,A
038B 7800     F     2006             MOV     R0,#LOW (rasx1_t)
038D E6             2007             MOV     A,@R0
038E FC             2008             MOV     R4,A
038F 08             2009             INC     R0
0390 E6             2010             MOV     A,@R0
0391 FD             2011             MOV     R5,A
0392 D3             2012             SETB    C
0393 9F             2013             SUBB    A,R7
0394 EC             2014             MOV     A,R4
0395 9E             2015             SUBB    A,R6
0396 4019           2016             JC      ?C0057
                    2017     ;                       { 
                    2018                             ; SOURCE LINE # 358
                    2019     ;                       //      rasx1=rasx1_t;
                    2020     ;                       //      r1=r1-rasx1+rasx1_t;
                    2021     ;                          if (er1==1)
                    2022                             ; SOURCE LINE # 361
0398 300016   F     2023             JNB     er1,?C0057
                    2024     ;                          {    rasx1=rasx1_t;
                    2025                             ; SOURCE LINE # 362
039B 7800     F     2026             MOV     R0,#LOW (rasx1)
039D A60C           2027             MOV     @R0,AR4
039F 08             2028             INC     R0
03A0 A60D           2029             MOV     @R0,AR5
                    2030     ;                       //      rasx1_t=0;
                    2031     ;                               r1=0;
A51 MACRO ASSEMBLER  MAIN_BKCD                                                            12/02/2009 12:07:33 PAGE    32

                    2032                             ; SOURCE LINE # 364
03A2 750000   F     2033             MOV     r1?+03H,#00H
03A5 750000   F     2034             MOV     r1?+02H,#00H
03A8 750000   F     2035             MOV     r1?+01H,#00H
03AB 750000   F     2036             MOV     r1?,#00H
                    2037     ;                               bufcht1[1]=0;
                    2038                             ; SOURCE LINE # 365
03AE 750000   F     2039             MOV     bufcht1+01H,#00H
                    2040     ;                               }
                    2041                             ; SOURCE LINE # 366
                    2042     ;                       //      er1=0;
                    2043     ;                       }
                    2044                             ; SOURCE LINE # 368
                    2045     ;               }
                    2046                             ; SOURCE LINE # 369
03B1                2047     ?C0057:
                    2048     ;               if (rasx1_t>40000)
                    2049                             ; SOURCE LINE # 370
03B1 7800     F     2050             MOV     R0,#LOW (rasx1_t)
03B3 E6             2051             MOV     A,@R0
03B4 FE             2052             MOV     R6,A
03B5 08             2053             INC     R0
03B6 E6             2054             MOV     A,@R0
03B7 FF             2055             MOV     R7,A
03B8 E4             2056             CLR     A
03B9 FC             2057             MOV     R4,A
03BA FD             2058             MOV     R5,A
03BB 7B40           2059             MOV     R3,#040H
03BD 7A9C           2060             MOV     R2,#09CH
03BF F9             2061             MOV     R1,A
03C0 F8             2062             MOV     R0,A
03C1 C3             2063             CLR     C
03C2 120000   F     2064             LCALL   ?C?SLCMP
03C5 501F           2065             JNC     ?C0045
                    2066     ;               {       rasx1=0;
                    2067                             ; SOURCE LINE # 371
03C7 7800     F     2068             MOV     R0,#LOW (rasx1)
03C9 7600           2069             MOV     @R0,#00H
03CB 08             2070             INC     R0
03CC 7600           2071             MOV     @R0,#00H
                    2072     ;                       rasx1_t=0;
                    2073                             ; SOURCE LINE # 372
03CE 7800     F     2074             MOV     R0,#LOW (rasx1_t)
03D0 7600           2075             MOV     @R0,#00H
03D2 08             2076             INC     R0
03D3 7600           2077             MOV     @R0,#00H
                    2078     ;                       r1=0;
                    2079                             ; SOURCE LINE # 373
03D5 750000   F     2080             MOV     r1?+03H,#00H
03D8 750000   F     2081             MOV     r1?+02H,#00H
03DB 750000   F     2082             MOV     r1?+01H,#00H
03DE 750000   F     2083             MOV     r1?,#00H
                    2084     ;                       bufcht1[1]=0;
                    2085                             ; SOURCE LINE # 374
03E1 750000   F     2086             MOV     bufcht1+01H,#00H
                    2087     ;                       er1=0;
                    2088                             ; SOURCE LINE # 375
03E4 C200     F     2089             CLR     er1
                    2090     ;               }
                    2091                             ; SOURCE LINE # 376
                    2092     ;               }
                    2093                             ; SOURCE LINE # 377
03E6                2094     ?C0045:
                    2095     ; 
                    2096     ; 
                    2097     ;       if (MM[2]!=0)
A51 MACRO ASSEMBLER  MAIN_BKCD                                                            12/02/2009 12:07:33 PAGE    33

                    2098                             ; SOURCE LINE # 380
03E6 7800     F     2099             MOV     R0,#LOW (MM+02H)
03E8 E6             2100             MOV     A,@R0
03E9 FF             2101             MOV     R7,A
03EA 7003           2102             JNZ     $ + 5H
03EC 020000   F     2103             LJMP    ?C0061
                    2104     ;       {       rasx2_t++;
                    2105                             ; SOURCE LINE # 381
03EF 7800     F     2106             MOV     R0,#LOW (rasx2_t+01H)
03F1 06             2107             INC     @R0
03F2 E6             2108             MOV     A,@R0
03F3 18             2109             DEC     R0
03F4 7001           2110             JNZ     ?C0724
03F6 06             2111             INC     @R0
03F7                2112     ?C0724:
                    2113     ;       //      A_N2=1;
                    2114     ; 
                    2115     ;               if (((copy_p&MM[2])==MM[2])&((copy_p1&MM[2])!=MM[2]))
                    2116                             ; SOURCE LINE # 384
03F7 E500     F     2117             MOV     A,copy_p+01H
03F9 5F             2118             ANL     A,R7
03FA B50F04         2119             CJNE    A,AR7,?C0063
03FD 7F01           2120             MOV     R7,#01H
03FF 8002           2121             SJMP    ?C0064
0401                2122     ?C0063:
0401 7F00           2123             MOV     R7,#00H
0403                2124     ?C0064:
0403 7800     F     2125             MOV     R0,#LOW (MM+02H)
0405 E6             2126             MOV     A,@R0
0406 FD             2127             MOV     R5,A
0407 7C00           2128             MOV     R4,#00H
0409 E500     F     2129             MOV     A,copy_p1+01H
040B 5D             2130             ANL     A,R5
040C 6D             2131             XRL     A,R5
040D 7001           2132             JNZ     ?C0726
040F E4             2133             CLR     A
0410                2134     ?C0726:
0410 6004           2135             JZ      ?C0065
0412 7E01           2136             MOV     R6,#01H
0414 8002           2137             SJMP    ?C0066
0416                2138     ?C0065:
0416 7E00           2139             MOV     R6,#00H
0418                2140     ?C0066:
0418 EE             2141             MOV     A,R6
0419 5F             2142             ANL     A,R7
041A 7003           2143             JNZ     $ + 5H
041C 020000   F     2144             LJMP    ?C0062
                    2145     ;               {  
                    2146                             ; SOURCE LINE # 385
                    2147     ;               rasx2_s++; 
                    2148                             ; SOURCE LINE # 386
041F 900000   F     2149             MOV     DPTR,#rasx2_s
0422 120000   F     2150             LCALL   ?C?LLDXDATA
0425 EF             2151             MOV     A,R7
0426 2401           2152             ADD     A,#01H
0428 FF             2153             MOV     R7,A
0429 E4             2154             CLR     A
042A 3E             2155             ADDC    A,R6
042B FE             2156             MOV     R6,A
042C E4             2157             CLR     A
042D 3D             2158             ADDC    A,R5
042E FD             2159             MOV     R5,A
042F E4             2160             CLR     A
0430 3C             2161             ADDC    A,R4
0431 FC             2162             MOV     R4,A
0432 900000   F     2163             MOV     DPTR,#rasx2_s
A51 MACRO ASSEMBLER  MAIN_BKCD                                                            12/02/2009 12:07:33 PAGE    34

0435 120000   F     2164             LCALL   ?C?LSTXDATA
                    2165     ; 
                    2166     ;                       if (er2==1)
                    2167                             ; SOURCE LINE # 388
0438 200003   F     2168             JB      er2,$ + 6H
043B 020000   F     2169             LJMP    ?C0067
                    2170     ;                       {
                    2171                             ; SOURCE LINE # 389
                    2172     ;                                       if  (rasx2_t<rasx2-rasx2/20)
                    2173                             ; SOURCE LINE # 390
043E 7800     F     2174             MOV     R0,#LOW (rasx2)
0440 E6             2175             MOV     A,@R0
0441 FA             2176             MOV     R2,A
0442 08             2177             INC     R0
0443 E6             2178             MOV     A,@R0
0444 FB             2179             MOV     R3,A
0445 7C00           2180             MOV     R4,#00H
0447 7D14           2181             MOV     R5,#014H
0449 FF             2182             MOV     R7,A
044A AE0A           2183             MOV     R6,AR2
044C 120000   F     2184             LCALL   ?C?UIDIV
044F C3             2185             CLR     C
0450 EB             2186             MOV     A,R3
0451 9F             2187             SUBB    A,R7
0452 FD             2188             MOV     R5,A
0453 EA             2189             MOV     A,R2
0454 9E             2190             SUBB    A,R6
0455 FC             2191             MOV     R4,A
0456 7800     F     2192             MOV     R0,#LOW (rasx2_t)
0458 E6             2193             MOV     A,@R0
0459 FA             2194             MOV     R2,A
045A 08             2195             INC     R0
045B E6             2196             MOV     A,@R0
045C FB             2197             MOV     R3,A
045D C3             2198             CLR     C
045E 9D             2199             SUBB    A,R5
045F EA             2200             MOV     A,R2
0460 9C             2201             SUBB    A,R4
0461 500F           2202             JNC     ?C0068
                    2203     ;                                       {
                    2204                             ; SOURCE LINE # 391
                    2205     ;                                               //rasx1=rasx1_t;
                    2206     ;                                               //rasx1_t=0;
                    2207     ;                                               r2=0;
                    2208                             ; SOURCE LINE # 394
0463 750000   F     2209             MOV     r2?+03H,#00H
0466 750000   F     2210             MOV     r2?+02H,#00H
0469 750000   F     2211             MOV     r2?+01H,#00H
046C 750000   F     2212             MOV     r2?,#00H
                    2213     ;                                               bufcht1[0]=0;
                    2214                             ; SOURCE LINE # 395
046F 750000   F     2215             MOV     bufcht1,#00H
                    2216     ;                                       }
                    2217                             ; SOURCE LINE # 396
0472                2218     ?C0068:
                    2219     ;                               
                    2220     ;                               if (bufcht1[0]<A_N2)
                    2221                             ; SOURCE LINE # 398
0472 C3             2222             CLR     C
0473 E500     F     2223             MOV     A,bufcht1
0475 7800     F     2224             MOV     R0,#LOW (A_N2+01H)
0477 96             2225             SUBB    A,@R0
0478 E4             2226             CLR     A
0479 18             2227             DEC     R0
047A 96             2228             SUBB    A,@R0
047B 5068           2229             JNC     ?C0069
A51 MACRO ASSEMBLER  MAIN_BKCD                                                            12/02/2009 12:07:33 PAGE    35

                    2230     ;                               {       if (r2+rasx2_t<r2)
                    2231                             ; SOURCE LINE # 399
047D EB             2232             MOV     A,R3
047E 2500     F     2233             ADD     A,r2?+03H
0480 FF             2234             MOV     R7,A
0481 EA             2235             MOV     A,R2
0482 3500     F     2236             ADDC    A,r2?+02H
0484 FE             2237             MOV     R6,A
0485 E4             2238             CLR     A
0486 3500     F     2239             ADDC    A,r2?+01H
0488 FD             2240             MOV     R5,A
0489 E4             2241             CLR     A
048A 3500     F     2242             ADDC    A,r2?
048C FC             2243             MOV     R4,A
048D AB00     F     2244             MOV     R3,r2?+03H
048F AA00     F     2245             MOV     R2,r2?+02H
0491 A900     F     2246             MOV     R1,r2?+01H
0493 A800     F     2247             MOV     R0,r2?
0495 D3             2248             SETB    C
0496 120000   F     2249             LCALL   ?C?ULCMP
0499 400B           2250             JC      ?C0070
                    2251     ;                                       {       A_N2=bufcht1[0];        
                    2252                             ; SOURCE LINE # 400
049B AF00     F     2253             MOV     R7,bufcht1
049D 7800     F     2254             MOV     R0,#LOW (A_N2)
049F 7600           2255             MOV     @R0,#00H
04A1 08             2256             INC     R0
04A2 A60F           2257             MOV     @R0,AR7
                    2258     ;                                       }                                                
                    2259                             ; SOURCE LINE # 401
04A4 8023           2260             SJMP    ?C0071
04A6                2261     ?C0070:
                    2262     ;                                       else 
                    2263     ;                                       {       bufcht1[0]++;
                    2264                             ; SOURCE LINE # 403
04A6 0500     F     2265             INC     bufcht1
                    2266     ;                                               r2=r2+rasx2_t;
                    2267                             ; SOURCE LINE # 404
04A8 7800     F     2268             MOV     R0,#LOW (rasx2_t)
04AA E6             2269             MOV     A,@R0
04AB FE             2270             MOV     R6,A
04AC 08             2271             INC     R0
04AD E6             2272             MOV     A,@R0
04AE FF             2273             MOV     R7,A
04AF E4             2274             CLR     A
04B0 FC             2275             MOV     R4,A
04B1 FD             2276             MOV     R5,A
04B2 E500     F     2277             MOV     A,r2?+03H
04B4 2F             2278             ADD     A,R7
04B5 FF             2279             MOV     R7,A
04B6 E500     F     2280             MOV     A,r2?+02H
04B8 3E             2281             ADDC    A,R6
04B9 FE             2282             MOV     R6,A
04BA ED             2283             MOV     A,R5
04BB 3500     F     2284             ADDC    A,r2?+01H
04BD FD             2285             MOV     R5,A
04BE EC             2286             MOV     A,R4
04BF 3500     F     2287             ADDC    A,r2?
04C1 8F00     F     2288             MOV     r2?+03H,R7
04C3 8E00     F     2289             MOV     r2?+02H,R6
04C5 8D00     F     2290             MOV     r2?+01H,R5
04C7 F500     F     2291             MOV     r2?,A
                    2292     ;                                       }
                    2293                             ; SOURCE LINE # 405
04C9                2294     ?C0071:
                    2295     ;                                       rasx2=r2/bufcht1[0];
A51 MACRO ASSEMBLER  MAIN_BKCD                                                            12/02/2009 12:07:33 PAGE    36

                    2296                             ; SOURCE LINE # 406
04C9 AF00     F     2297             MOV     R7,bufcht1
04CB AB0F           2298             MOV     R3,AR7
04CD E4             2299             CLR     A
04CE FA             2300             MOV     R2,A
04CF F9             2301             MOV     R1,A
04D0 F8             2302             MOV     R0,A
04D1 AF00     F     2303             MOV     R7,r2?+03H
04D3 AE00     F     2304             MOV     R6,r2?+02H
04D5 AD00     F     2305             MOV     R5,r2?+01H
04D7 AC00     F     2306             MOV     R4,r2?
04D9 120000   F     2307             LCALL   ?C?ULDIV
04DC 7800     F     2308             MOV     R0,#LOW (rasx2)
04DE A60E           2309             MOV     @R0,AR6
04E0 08             2310             INC     R0
04E1 A60F           2311             MOV     @R0,AR7
                    2312     ;                                       rasx2_t=0;
                    2313                             ; SOURCE LINE # 407
                    2314     ;                               }
                    2315                             ; SOURCE LINE # 408
04E3 804D           2316             SJMP    ?C0737
04E5                2317     ?C0069:
                    2318     ;                               else 
                    2319     ;                               {               rasx2=r2/bufcht1[0];
                    2320                             ; SOURCE LINE # 410
04E5 AF00     F     2321             MOV     R7,bufcht1
04E7 AB0F           2322             MOV     R3,AR7
04E9 E4             2323             CLR     A
04EA FA             2324             MOV     R2,A
04EB F9             2325             MOV     R1,A
04EC F8             2326             MOV     R0,A
04ED AF00     F     2327             MOV     R7,r2?+03H
04EF AE00     F     2328             MOV     R6,r2?+02H
04F1 AD00     F     2329             MOV     R5,r2?+01H
04F3 AC00     F     2330             MOV     R4,r2?
04F5 120000   F     2331             LCALL   ?C?ULDIV
04F8 7800     F     2332             MOV     R0,#LOW (rasx2)
04FA EE             2333             MOV     A,R6
04FB F6             2334             MOV     @R0,A
04FC 08             2335             INC     R0
04FD EF             2336             MOV     A,R7
04FE F6             2337             MOV     @R0,A
                    2338     ;                                               r2=r2-rasx2+rasx2_t;
                    2339                             ; SOURCE LINE # 411
04FF FB             2340             MOV     R3,A
0500 C3             2341             CLR     C
0501 E500     F     2342             MOV     A,r2?+03H
0503 9B             2343             SUBB    A,R3
0504 FF             2344             MOV     R7,A
0505 E500     F     2345             MOV     A,r2?+02H
0507 9E             2346             SUBB    A,R6
0508 FE             2347             MOV     R6,A
0509 E500     F     2348             MOV     A,r2?+01H
050B 9400           2349             SUBB    A,#00H
050D FD             2350             MOV     R5,A
050E E500     F     2351             MOV     A,r2?
0510 9400           2352             SUBB    A,#00H
0512 FC             2353             MOV     R4,A
0513 C00C           2354             PUSH    AR4
0515 A90D           2355             MOV     R1,AR5
0517 AA0E           2356             MOV     R2,AR6
0519 AB0F           2357             MOV     R3,AR7
051B 7800     F     2358             MOV     R0,#LOW (rasx2_t)
051D E6             2359             MOV     A,@R0
051E FE             2360             MOV     R6,A
051F 08             2361             INC     R0
A51 MACRO ASSEMBLER  MAIN_BKCD                                                            12/02/2009 12:07:33 PAGE    37

0520 E6             2362             MOV     A,@R0
0521 FF             2363             MOV     R7,A
0522 E4             2364             CLR     A
0523 FC             2365             MOV     R4,A
0524 FD             2366             MOV     R5,A
0525 D008           2367             POP     AR0
0527 120000   F     2368             LCALL   ?C?LADD
052A 8F00     F     2369             MOV     r2?+03H,R7
052C 8E00     F     2370             MOV     r2?+02H,R6
052E 8D00     F     2371             MOV     r2?+01H,R5
0530 8C00     F     2372             MOV     r2?,R4
                    2373     ;                                               rasx2_t=0;
                    2374                             ; SOURCE LINE # 412
0532                2375     ?C0737:
0532 7800     F     2376             MOV     R0,#LOW (rasx2_t)
0534 7600           2377             MOV     @R0,#00H
0536 08             2378             INC     R0
0537 7600           2379             MOV     @R0,#00H
                    2380     ;                               }
                    2381                             ; SOURCE LINE # 413
                    2382     ;       
                    2383     ;                       }
                    2384                             ; SOURCE LINE # 415
0539                2385     ?C0067:
                    2386     ;                       er2=1;
                    2387                             ; SOURCE LINE # 416
0539 D200     F     2388             SETB    er2
                    2389     ;               }
                    2390                             ; SOURCE LINE # 417
053B 803D           2391             SJMP    ?C0073
053D                2392     ?C0062:
                    2393     ;               else
                    2394     ;               {       
                    2395                             ; SOURCE LINE # 419
                    2396     ;                       if (rasx2_t>rasx2+rasx2/20)
                    2397                             ; SOURCE LINE # 420
053D 7800     F     2398             MOV     R0,#LOW (rasx2)
053F E6             2399             MOV     A,@R0
0540 FA             2400             MOV     R2,A
0541 08             2401             INC     R0
0542 E6             2402             MOV     A,@R0
0543 FB             2403             MOV     R3,A
0544 7C00           2404             MOV     R4,#00H
0546 7D14           2405             MOV     R5,#014H
0548 FF             2406             MOV     R7,A
0549 AE0A           2407             MOV     R6,AR2
054B 120000   F     2408             LCALL   ?C?UIDIV
054E EF             2409             MOV     A,R7
054F 2B             2410             ADD     A,R3
0550 FF             2411             MOV     R7,A
0551 EE             2412             MOV     A,R6
0552 3A             2413             ADDC    A,R2
0553 FE             2414             MOV     R6,A
0554 7800     F     2415             MOV     R0,#LOW (rasx2_t)
0556 E6             2416             MOV     A,@R0
0557 FC             2417             MOV     R4,A
0558 08             2418             INC     R0
0559 E6             2419             MOV     A,@R0
055A FD             2420             MOV     R5,A
055B D3             2421             SETB    C
055C 9F             2422             SUBB    A,R7
055D EC             2423             MOV     A,R4
055E 9E             2424             SUBB    A,R6
055F 4019           2425             JC      ?C0073
                    2426     ;                       { 
                    2427                             ; SOURCE LINE # 421
A51 MACRO ASSEMBLER  MAIN_BKCD                                                            12/02/2009 12:07:33 PAGE    38

                    2428     ;                       //      rasx1=rasx1_t;
                    2429     ;                       //      r1=r1-rasx1+rasx1_t;
                    2430     ;                          if (er2==1)
                    2431                             ; SOURCE LINE # 424
0561 300016   F     2432             JNB     er2,?C0073
                    2433     ;                          {    rasx2=rasx2_t;
                    2434                             ; SOURCE LINE # 425
0564 7800     F     2435             MOV     R0,#LOW (rasx2)
0566 A60C           2436             MOV     @R0,AR4
0568 08             2437             INC     R0
0569 A60D           2438             MOV     @R0,AR5
                    2439     ;                       //      rasx1_t=0;
                    2440     ;                               r2=0;
                    2441                             ; SOURCE LINE # 427
056B 750000   F     2442             MOV     r2?+03H,#00H
056E 750000   F     2443             MOV     r2?+02H,#00H
0571 750000   F     2444             MOV     r2?+01H,#00H
0574 750000   F     2445             MOV     r2?,#00H
                    2446     ;                               bufcht1[0]=0;
                    2447                             ; SOURCE LINE # 428
0577 750000   F     2448             MOV     bufcht1,#00H
                    2449     ;                               }
                    2450                             ; SOURCE LINE # 429
                    2451     ;                       //      er1=0;
                    2452     ;                       }
                    2453                             ; SOURCE LINE # 431
                    2454     ;               }
                    2455                             ; SOURCE LINE # 432
057A                2456     ?C0073:
                    2457     ; 
                    2458     ; 
                    2459     ;               if (rasx2_t>40000)
                    2460                             ; SOURCE LINE # 435
057A 7800     F     2461             MOV     R0,#LOW (rasx2_t)
057C E6             2462             MOV     A,@R0
057D FE             2463             MOV     R6,A
057E 08             2464             INC     R0
057F E6             2465             MOV     A,@R0
0580 FF             2466             MOV     R7,A
0581 E4             2467             CLR     A
0582 FC             2468             MOV     R4,A
0583 FD             2469             MOV     R5,A
0584 7B40           2470             MOV     R3,#040H
0586 7A9C           2471             MOV     R2,#09CH
0588 F9             2472             MOV     R1,A
0589 F8             2473             MOV     R0,A
058A C3             2474             CLR     C
058B 120000   F     2475             LCALL   ?C?SLCMP
058E 501F           2476             JNC     ?C0061
                    2477     ;               {
                    2478                             ; SOURCE LINE # 436
                    2479     ;                       rasx2=0;
                    2480                             ; SOURCE LINE # 437
0590 7800     F     2481             MOV     R0,#LOW (rasx2)
0592 7600           2482             MOV     @R0,#00H
0594 08             2483             INC     R0
0595 7600           2484             MOV     @R0,#00H
                    2485     ;                       rasx2_t=0;
                    2486                             ; SOURCE LINE # 438
0597 7800     F     2487             MOV     R0,#LOW (rasx2_t)
0599 7600           2488             MOV     @R0,#00H
059B 08             2489             INC     R0
059C 7600           2490             MOV     @R0,#00H
                    2491     ;                       r2=0;
                    2492                             ; SOURCE LINE # 439
059E 750000   F     2493             MOV     r2?+03H,#00H
A51 MACRO ASSEMBLER  MAIN_BKCD                                                            12/02/2009 12:07:33 PAGE    39

05A1 750000   F     2494             MOV     r2?+02H,#00H
05A4 750000   F     2495             MOV     r2?+01H,#00H
05A7 750000   F     2496             MOV     r2?,#00H
                    2497     ;                       bufcht1[0]=0;
                    2498                             ; SOURCE LINE # 440
05AA 750000   F     2499             MOV     bufcht1,#00H
                    2500     ;                       er2=0;
                    2501                             ; SOURCE LINE # 441
05AD C200     F     2502             CLR     er2
                    2503     ;               }
                    2504                             ; SOURCE LINE # 442
                    2505     ;       
                    2506     ;       }
                    2507                             ; SOURCE LINE # 444
05AF                2508     ?C0061:
                    2509     ; 
                    2510     ;       if (MM[0]!=0)
                    2511                             ; SOURCE LINE # 446
05AF 7800     F     2512             MOV     R0,#LOW (MM)
05B1 E6             2513             MOV     A,@R0
05B2 FF             2514             MOV     R7,A
05B3 6043           2515             JZ      ?C0085
                    2516     ;       {
                    2517                             ; SOURCE LINE # 447
                    2518     ;               if (((copy_p&MM[0])==MM[0])&((copy_p1&MM[0])!=MM[0]))
                    2519                             ; SOURCE LINE # 448
05B5 E500     F     2520             MOV     A,copy_p+01H
05B7 5F             2521             ANL     A,R7
05B8 B50F04         2522             CJNE    A,AR7,?C0079
05BB 7F01           2523             MOV     R7,#01H
05BD 8002           2524             SJMP    ?C0080
05BF                2525     ?C0079:
05BF 7F00           2526             MOV     R7,#00H
05C1                2527     ?C0080:
05C1 7800     F     2528             MOV     R0,#LOW (MM)
05C3 E6             2529             MOV     A,@R0
05C4 FD             2530             MOV     R5,A
05C5 7C00           2531             MOV     R4,#00H
05C7 E500     F     2532             MOV     A,copy_p1+01H
05C9 5D             2533             ANL     A,R5
05CA 6D             2534             XRL     A,R5
05CB 7001           2535             JNZ     ?C0728
05CD E4             2536             CLR     A
05CE                2537     ?C0728:
05CE 6004           2538             JZ      ?C0081
05D0 7E01           2539             MOV     R6,#01H
05D2 8002           2540             SJMP    ?C0082
05D4                2541     ?C0081:
05D4 7E00           2542             MOV     R6,#00H
05D6                2543     ?C0082:
05D6 EE             2544             MOV     A,R6
05D7 5F             2545             ANL     A,R7
05D8 601E           2546             JZ      ?C0085
                    2547     ;               {       
                    2548                             ; SOURCE LINE # 449
                    2549     ;                        
                    2550     ;                       
                    2551     ;                               if  ((copy_p&MM[6])==MM[6])
                    2552                             ; SOURCE LINE # 452
05DA 7800     F     2553             MOV     R0,#LOW (MM+06H)
05DC E6             2554             MOV     A,@R0
05DD FF             2555             MOV     R7,A
05DE 7E00           2556             MOV     R6,#00H
05E0 E500     F     2557             MOV     A,copy_p+01H
05E2 5F             2558             ANL     A,R7
05E3 B50F0A         2559             CJNE    A,AR7,?C0083
A51 MACRO ASSEMBLER  MAIN_BKCD                                                            12/02/2009 12:07:33 PAGE    40

                    2560     ;                               {       cnt_dol++;
                    2561                             ; SOURCE LINE # 453
05E6 7800     F     2562             MOV     R0,#LOW (cnt_dol+01H)
05E8 06             2563             INC     @R0
05E9 E6             2564             MOV     A,@R0
05EA 18             2565             DEC     R0
05EB 700B           2566             JNZ     ?C0085
05ED 06             2567             INC     @R0
05EE                2568     ?C0730:
                    2569     ;                               }
                    2570                             ; SOURCE LINE # 454
05EE 8008           2571             SJMP    ?C0085
05F0                2572     ?C0083:
                    2573     ;                               else
                    2574     ;                                       cnt_dol--;
                    2575                             ; SOURCE LINE # 456
05F0 7800     F     2576             MOV     R0,#LOW (cnt_dol+01H)
05F2 E6             2577             MOV     A,@R0
05F3 16             2578             DEC     @R0
05F4 18             2579             DEC     R0
05F5 7001           2580             JNZ     ?C0731
05F7 16             2581             DEC     @R0
05F8                2582     ?C0731:
                    2583     ;                       }
                    2584                             ; SOURCE LINE # 457
                    2585     ;       }
                    2586                             ; SOURCE LINE # 458
                    2587     ; 
                    2588     ;   //nro=1;
                    2589     ;  // TI=1;
                    2590     ;    
                    2591     ;  // ET1 = 0;
                    2592     ; 
                    2593     ; 
                    2594     ; return;
                    2595     ; }
                    2596                             ; SOURCE LINE # 467
05F8                2597     ?C0085:
05F8 D0D0           2598             POP     PSW
05FA D082           2599             POP     DPL
05FC D083           2600             POP     DPH
05FE D0F0           2601             POP     B
0600 D0E0           2602             POP     ACC
0602 32             2603             RETI    
                    2604     ; END OF timer1int
                    2605     
----                2606     CSEG    AT      00023H
0023 020000   F     2607             LJMP    ser_int
                    2608     
                    2609     ; 
                    2610     ; 
                    2611     ; void ser_int (void) interrupt 4 using 2                             //monitor    monitor
                    2612     
----                2613             RSEG  ?PR?ser_int?MAIN_BKCD
                    2614             USING   2
0000                2615     ser_int:
0000 C0E0           2616             PUSH    ACC
0002 C0F0           2617             PUSH    B
0004 C083           2618             PUSH    DPH
0006 C082           2619             PUSH    DPL
0008 C0D0           2620             PUSH    PSW
                    2621             USING   2
000A 75D010         2622             MOV     PSW,#010H
                    2623                             ; SOURCE LINE # 470
                    2624     ;       
                    2625     ; {
A51 MACRO ASSEMBLER  MAIN_BKCD                                                            12/02/2009 12:07:33 PAGE    41

                    2626     ; register unsigned char i,i1,j;
                    2627     ; //register unsigned char tmp;
                    2628     ;   /*
                    2629     ;   if (TI==1)
                    2630     ;   { TI=0;
                    2631     ;     SBUF=nro;
                    2632     ;       nro++;
                    2633     ;    }
                    2634     ;    if (RI==1)
                    2635     ;    {RI=0;
                    2636     ;    SBUF=0x22;
                    2637     ;    }
                    2638     ;   */
                    2639     ; 
                    2640     ; 
                    2641     ; 
                    2642     ; 
                    2643     ; 
                    2644     ; 
                    2645     ;           if ((RI == 1)&(WR==0))
                    2646                             ; SOURCE LINE # 492
000D 20B604         2647             JB      WR,?C0087
0010 7F01           2648             MOV     R7,#01H
0012 8002           2649             SJMP    ?C0088
0014                2650     ?C0087:
0014 7F00           2651             MOV     R7,#00H
0016                2652     ?C0088:
0016 309804         2653             JNB     RI,?C0089
0019 7E01           2654             MOV     R6,#01H
001B 8002           2655             SJMP    ?C0090
001D                2656     ?C0089:
001D 7E00           2657             MOV     R6,#00H
001F                2658     ?C0090:
001F EE             2659             MOV     A,R6
0020 5F             2660             ANL     A,R7
0021 7003           2661             JNZ     $ + 5H
0023 020000   F     2662             LJMP    ?C0086
                    2663     ;         {
                    2664                             ; SOURCE LINE # 493
                    2665     ;                   RI = 0;
                    2666                             ; SOURCE LINE # 494
0026 C298           2667             CLR     RI
                    2668     ;               if   ((st_ser==5)|(st_ser==10))
                    2669                             ; SOURCE LINE # 495
0028 900000   F     2670             MOV     DPTR,#st_ser
002B E0             2671             MOVX    A,@DPTR
002C FF             2672             MOV     R7,A
002D B40A04         2673             CJNE    A,#0AH,?C0092
0030 7E01           2674             MOV     R6,#01H
0032 8002           2675             SJMP    ?C0093
0034                2676     ?C0092:
0034 7E00           2677             MOV     R6,#00H
0036                2678     ?C0093:
0036 EF             2679             MOV     A,R7
0037 B40504         2680             CJNE    A,#05H,?C0094
003A 7F01           2681             MOV     R7,#01H
003C 8002           2682             SJMP    ?C0095
003E                2683     ?C0094:
003E 7F00           2684             MOV     R7,#00H
0040                2685     ?C0095:
0040 EF             2686             MOV     A,R7
0041 4E             2687             ORL     A,R6
0042 7003           2688             JNZ     $ + 5H
0044 020000   F     2689             LJMP    ?C0101
                    2690     ;                       {}
                    2691                             ; SOURCE LINE # 496
A51 MACRO ASSEMBLER  MAIN_BKCD                                                            12/02/2009 12:07:33 PAGE    42

                    2692     ;                       else
                    2693     ;                       {
                    2694                             ; SOURCE LINE # 498
                    2695     ;                               goto kon;       
                    2696                             ; SOURCE LINE # 499
                    2697     ;                       }         
                    2698                             ; SOURCE LINE # 500
0047                2699     ?C0096:
                    2700     ; 
                    2701     ;                  tmp=SBUF;
                    2702                             ; SOURCE LINE # 502
0047 7800     F     2703             MOV     R0,#LOW (tmp)
0049 A699           2704             MOV     @R0,SBUF
                    2705     ;                  priem=0;
                    2706                             ; SOURCE LINE # 503
004B 900000   F     2707             MOV     DPTR,#priem
004E E4             2708             CLR     A
004F F0             2709             MOVX    @DPTR,A
                    2710     ;                  
                    2711     ; 
                    2712     ;                  if (nr1==0)
                    2713                             ; SOURCE LINE # 506
0050 7800     F     2714             MOV     R0,#LOW (nr1)
0052 E6             2715             MOV     A,@R0
0053 700B           2716             JNZ     ?C0098
                    2717     ;                  {
                    2718                             ; SOURCE LINE # 507
                    2719     ;                       nr1=1;
                    2720                             ; SOURCE LINE # 508
0055 7601           2721             MOV     @R0,#01H
                    2722     ;                       st_ser=10;
                    2723                             ; SOURCE LINE # 509
0057 900000   F     2724             MOV     DPTR,#st_ser
005A 740A           2725             MOV     A,#0AH
005C F0             2726             MOVX    @DPTR,A
                    2727     ;                       nr=0xFF;
                    2728                             ; SOURCE LINE # 510
005D 7500FF   F     2729             MOV     nr,#0FFH
                    2730     ;                  }
                    2731                             ; SOURCE LINE # 511
0060                2732     ?C0098:
                    2733     ;                  nr++;
                    2734                             ; SOURCE LINE # 512
0060 0500     F     2735             INC     nr
                    2736     ; 
                    2737     ;                  if (nr1!=1)
                    2738                             ; SOURCE LINE # 514
0062 7800     F     2739             MOV     R0,#LOW (nr1)
0064 E6             2740             MOV     A,@R0
0065 6401           2741             XRL     A,#01H
0067 6003           2742             JZ      ?C0099
                    2743     ;                  {st_ser=5;
                    2744                             ; SOURCE LINE # 515
                    2745     ;                  goto kon;}
                    2746                             ; SOURCE LINE # 516
0069 020000   F     2747             LJMP    ?C0738
006C                2748     ?C0099:
                    2749     ; 
                    2750     ;                  if (nr>33) 
                    2751                             ; SOURCE LINE # 518
006C E500     F     2752             MOV     A,nr
006E D3             2753             SETB    C
006F 9421           2754             SUBB    A,#021H
0071 4003           2755             JC      ?C0100
                    2756     ;                  {
                    2757                             ; SOURCE LINE # 519
A51 MACRO ASSEMBLER  MAIN_BKCD                                                            12/02/2009 12:07:33 PAGE    43

                    2758     ;                       st_ser=5;
                    2759                             ; SOURCE LINE # 520
                    2760     ;                       nr1=2;
                    2761                             ; SOURCE LINE # 521
0073 020000   F     2762             LJMP    ?C0744
                    2763     ;                       return;
                    2764     ;                  }
                    2765                             ; SOURCE LINE # 523
0076                2766     ?C0100:
                    2767     ;          
                    2768     ; 
                    2769     ;                 
                    2770     ; //               if (nr==1)
                    2771     ; //                {xbufin[1]=xbufin[1]|0x80;}
                    2772     ;                if (nr==2)
                    2773                             ; SOURCE LINE # 529
0076 E500     F     2774             MOV     A,nr
0078 6402           2775             XRL     A,#02H
007A 702A           2776             JNZ     ?C0102
                    2777     ;                  {
                    2778                             ; SOURCE LINE # 530
                    2779     ;                               if ((tmp<40)&(tmp>6))
                    2780                             ; SOURCE LINE # 531
007C 7800     F     2781             MOV     R0,#LOW (tmp)
007E E6             2782             MOV     A,@R0
007F FF             2783             MOV     R7,A
0080 D3             2784             SETB    C
0081 9406           2785             SUBB    A,#06H
0083 4004           2786             JC      ?C0104
0085 7E01           2787             MOV     R6,#01H
0087 8002           2788             SJMP    ?C0105
0089                2789     ?C0104:
0089 7E00           2790             MOV     R6,#00H
008B                2791     ?C0105:
008B EF             2792             MOV     A,R7
008C C3             2793             CLR     C
008D 9428           2794             SUBB    A,#028H
008F 5004           2795             JNC     ?C0106
0091 7F01           2796             MOV     R7,#01H
0093 8002           2797             SJMP    ?C0107
0095                2798     ?C0106:
0095 7F00           2799             MOV     R7,#00H
0097                2800     ?C0107:
0097 EF             2801             MOV     A,R7
0098 5E             2802             ANL     A,R6
0099 6008           2803             JZ      ?C0103
                    2804     ;                               {
                    2805                             ; SOURCE LINE # 532
                    2806     ;                                       Len_p=tmp;
                    2807                             ; SOURCE LINE # 533
009B 7800     F     2808             MOV     R0,#LOW (tmp)
009D E6             2809             MOV     A,@R0
009E 7800     F     2810             MOV     R0,#LOW (Len_p)
00A0 F6             2811             MOV     @R0,A
                    2812     ;                               }
                    2813                             ; SOURCE LINE # 534
00A1 8003           2814             SJMP    ?C0102
00A3                2815     ?C0103:
                    2816     ;                               else
                    2817     ;                               {
                    2818                             ; SOURCE LINE # 536
                    2819     ;                                       st_ser=5;
                    2820                             ; SOURCE LINE # 537
00A3                2821     ?C0739:
                    2822     ;                                       nr1=2;
                    2823                             ; SOURCE LINE # 538
A51 MACRO ASSEMBLER  MAIN_BKCD                                                            12/02/2009 12:07:33 PAGE    44

00A3 020000   F     2824             LJMP    ?C0744
                    2825     ;                                       return;
                    2826     ;                               }
                    2827                             ; SOURCE LINE # 540
                    2828     ;                       }
                    2829                             ; SOURCE LINE # 541
00A6                2830     ?C0102:
                    2831     ;                       
                    2832     ;                        
                    2833     ;                  if (nr==0)
                    2834                             ; SOURCE LINE # 544
00A6 E500     F     2835             MOV     A,nr
00A8 700A           2836             JNZ     ?C0109
                    2837     ;                  {
                    2838                             ; SOURCE LINE # 545
                    2839     ;                               if (tmp!=0x7E)
                    2840                             ; SOURCE LINE # 546
00AA 7800     F     2841             MOV     R0,#LOW (tmp)
00AC E6             2842             MOV     A,@R0
00AD 647E           2843             XRL     A,#07EH
00AF 6003           2844             JZ      ?C0109
                    2845     ;                               {
                    2846                             ; SOURCE LINE # 547
                    2847     ;                                       st_ser=5;
                    2848                             ; SOURCE LINE # 548
00B1                2849     ?C0740:
                    2850     ;                                       nr1=2;
                    2851                             ; SOURCE LINE # 549
00B1 020000   F     2852             LJMP    ?C0744
                    2853     ;                                       return;
                    2854     ;                               }
                    2855                             ; SOURCE LINE # 551
                    2856     ;                  }
                    2857                             ; SOURCE LINE # 552
00B4                2858     ?C0109:
                    2859     ; 
                    2860     ;                       if (nr==1)
                    2861                             ; SOURCE LINE # 554
00B4 E500     F     2862             MOV     A,nr
00B6 6401           2863             XRL     A,#01H
00B8 703D           2864             JNZ     ?C0111
                    2865     ;                       {
                    2866                             ; SOURCE LINE # 555
                    2867     ;                               if ((tmp==lineadd)|(tmp==0x3F)|((tmp==lineadd_o)&(lineadd_o
                             !=0xFF)))
                    2868                             ; SOURCE LINE # 556
00BA 900000   F     2869             MOV     DPTR,#lineadd_o
00BD E0             2870             MOVX    A,@DPTR
00BE FF             2871             MOV     R7,A
00BF 7800     F     2872             MOV     R0,#LOW (tmp)
00C1 E6             2873             MOV     A,@R0
00C2 FE             2874             MOV     R6,A
00C3 B51704         2875             CJNE    A,AR7,?C0113
00C6 7D01           2876             MOV     R5,#01H
00C8 8002           2877             SJMP    ?C0114
00CA                2878     ?C0113:
00CA 7D00           2879             MOV     R5,#00H
00CC                2880     ?C0114:
00CC EF             2881             MOV     A,R7
00CD F4             2882             CPL     A
00CE 6004           2883             JZ      ?C0115
00D0 7F01           2884             MOV     R7,#01H
00D2 8002           2885             SJMP    ?C0116
00D4                2886     ?C0115:
00D4 7F00           2887             MOV     R7,#00H
00D6                2888     ?C0116:
A51 MACRO ASSEMBLER  MAIN_BKCD                                                            12/02/2009 12:07:33 PAGE    45

00D6 EF             2889             MOV     A,R7
00D7 5D             2890             ANL     A,R5
00D8 FF             2891             MOV     R7,A
00D9 EE             2892             MOV     A,R6
00DA B50004   F     2893             CJNE    A,lineadd,?C0117
00DD 7E01           2894             MOV     R6,#01H
00DF 8002           2895             SJMP    ?C0118
00E1                2896     ?C0117:
00E1 7E00           2897             MOV     R6,#00H
00E3                2898     ?C0118:
00E3 7800     F     2899             MOV     R0,#LOW (tmp)
00E5 E6             2900             MOV     A,@R0
00E6 B43F04         2901             CJNE    A,#03FH,?C0119
00E9 7D01           2902             MOV     R5,#01H
00EB 8002           2903             SJMP    ?C0120
00ED                2904     ?C0119:
00ED 7D00           2905             MOV     R5,#00H
00EF                2906     ?C0120:
00EF EE             2907             MOV     A,R6
00F0 4D             2908             ORL     A,R5
00F1 4F             2909             ORL     A,R7
00F2 7003           2910             JNZ     ?C0111
                    2911     ;                               {
                    2912                             ; SOURCE LINE # 557
                    2913     ;                               }
                    2914                             ; SOURCE LINE # 558
00F4                2915     ?C0112:
                    2916     ;                               else
                    2917     ;                               {st_ser=5;
                    2918                             ; SOURCE LINE # 560
00F4                2919     ?C0741:
                    2920     ;                                nr1=2;
                    2921                             ; SOURCE LINE # 561
00F4 020000   F     2922             LJMP    ?C0744
                    2923     ;                                return;
                    2924     ;                               }
                    2925                             ; SOURCE LINE # 563
                    2926     ;                       }
                    2927                             ; SOURCE LINE # 564
00F7                2928     ?C0111:
                    2929     ;        xbufin[nr] = tmp;
                    2930                             ; SOURCE LINE # 565
00F7 7800     F     2931             MOV     R0,#LOW (tmp)
00F9 E6             2932             MOV     A,@R0
00FA FF             2933             MOV     R7,A
00FB 7480           2934             MOV     A,#LOW (xbufin)
00FD 2500     F     2935             ADD     A,nr
00FF F582           2936             MOV     DPL,A
0101 E4             2937             CLR     A
0102 3400           2938             ADDC    A,#HIGH (xbufin)
0104 F583           2939             MOV     DPH,A
0106 EF             2940             MOV     A,R7
0107 F0             2941             MOVX    @DPTR,A
                    2942     ; 
                    2943     ;       if ((nr==Len_p)&(nr>6))
                    2944                             ; SOURCE LINE # 567
0108 E500     F     2945             MOV     A,nr
010A 7800     F     2946             MOV     R0,#LOW (Len_p)
010C 66             2947             XRL     A,@R0
010D 7004           2948             JNZ     ?C0123
010F 7F01           2949             MOV     R7,#01H
0111 8002           2950             SJMP    ?C0124
0113                2951     ?C0123:
0113 7F00           2952             MOV     R7,#00H
0115                2953     ?C0124:
0115 E500     F     2954             MOV     A,nr
A51 MACRO ASSEMBLER  MAIN_BKCD                                                            12/02/2009 12:07:33 PAGE    46

0117 D3             2955             SETB    C
0118 9406           2956             SUBB    A,#06H
011A 4004           2957             JC      ?C0125
011C 7E01           2958             MOV     R6,#01H
011E 8002           2959             SJMP    ?C0126
0120                2960     ?C0125:
0120 7E00           2961             MOV     R6,#00H
0122                2962     ?C0126:
0122 EE             2963             MOV     A,R6
0123 5F             2964             ANL     A,R7
0124 7003           2965             JNZ     $ + 5H
0126 020000   F     2966             LJMP    ?C0101
                    2967     ;       {
                    2968                             ; SOURCE LINE # 568
                    2969     ;               if ((xbufin[1]==lineadd)|(xbufin[1]==0x3F)|((xbufin[1]==lineadd_o)&(lineadd
                             _o!=0xFF)))
                    2970                             ; SOURCE LINE # 569
0129 900000   F     2971             MOV     DPTR,#lineadd_o
012C E0             2972             MOVX    A,@DPTR
012D FF             2973             MOV     R7,A
012E 900081         2974             MOV     DPTR,#xbufin+01H
0131 E0             2975             MOVX    A,@DPTR
0132 FE             2976             MOV     R6,A
0133 B51704         2977             CJNE    A,AR7,?C0128
0136 7D01           2978             MOV     R5,#01H
0138 8002           2979             SJMP    ?C0129
013A                2980     ?C0128:
013A 7D00           2981             MOV     R5,#00H
013C                2982     ?C0129:
013C EF             2983             MOV     A,R7
013D F4             2984             CPL     A
013E 6004           2985             JZ      ?C0130
0140 7F01           2986             MOV     R7,#01H
0142 8002           2987             SJMP    ?C0131
0144                2988     ?C0130:
0144 7F00           2989             MOV     R7,#00H
0146                2990     ?C0131:
0146 EF             2991             MOV     A,R7
0147 5D             2992             ANL     A,R5
0148 FF             2993             MOV     R7,A
0149 EE             2994             MOV     A,R6
014A B50004   F     2995             CJNE    A,lineadd,?C0132
014D 7E01           2996             MOV     R6,#01H
014F 8002           2997             SJMP    ?C0133
0151                2998     ?C0132:
0151 7E00           2999             MOV     R6,#00H
0153                3000     ?C0133:
0153 900081         3001             MOV     DPTR,#xbufin+01H
0156 E0             3002             MOVX    A,@DPTR
0157 B43F04         3003             CJNE    A,#03FH,?C0134
015A 7D01           3004             MOV     R5,#01H
015C 8002           3005             SJMP    ?C0135
015E                3006     ?C0134:
015E 7D00           3007             MOV     R5,#00H
0160                3008     ?C0135:
0160 EE             3009             MOV     A,R6
0161 4D             3010             ORL     A,R5
0162 4F             3011             ORL     A,R7
0163 7003           3012             JNZ     $ + 5H
0165 020000   F     3013             LJMP    ?C0127
                    3014     ;               {
                    3015                             ; SOURCE LINE # 570
                    3016     ;                               crc=0;
                    3017                             ; SOURCE LINE # 571
0168 750000   F     3018             MOV     crc,#00H
                    3019     ;                               for(i=1;i<Len_p;i++)
A51 MACRO ASSEMBLER  MAIN_BKCD                                                            12/02/2009 12:07:33 PAGE    47

                    3020                             ; SOURCE LINE # 572
016B 750001   F     3021             MOV     i?340,#01H
016E                3022     ?C0136:
016E E500     F     3023             MOV     A,i?340
0170 C3             3024             CLR     C
0171 7800     F     3025             MOV     R0,#LOW (Len_p)
0173 96             3026             SUBB    A,@R0
0174 5014           3027             JNC     ?C0137
                    3028     ;                               {
                    3029                             ; SOURCE LINE # 573
                    3030     ;                                  crc+=xbufin[i] ;
                    3031                             ; SOURCE LINE # 574
0176 7480           3032             MOV     A,#LOW (xbufin)
0178 2500     F     3033             ADD     A,i?340
017A F582           3034             MOV     DPL,A
017C E4             3035             CLR     A
017D 3400           3036             ADDC    A,#HIGH (xbufin)
017F F583           3037             MOV     DPH,A
0181 E0             3038             MOVX    A,@DPTR
0182 2500     F     3039             ADD     A,crc
0184 F500     F     3040             MOV     crc,A
                    3041     ;                               }
                    3042                             ; SOURCE LINE # 575
0186 0500     F     3043             INC     i?340
0188 80E4           3044             SJMP    ?C0136
018A                3045     ?C0137:
                    3046     ;                       if (crc==tmp)
                    3047                             ; SOURCE LINE # 576
018A E500     F     3048             MOV     A,crc
018C 7800     F     3049             MOV     R0,#LOW (tmp)
018E 66             3050             XRL     A,@R0
018F 6003           3051             JZ      $ + 5H
0191 020000   F     3052             LJMP    ?C0139
                    3053     ;                       {
                    3054                             ; SOURCE LINE # 577
                    3055     ;                                  st_ser=20;
                    3056                             ; SOURCE LINE # 578
0194 900000   F     3057             MOV     DPTR,#st_ser
0197 7414           3058             MOV     A,#014H
0199 F0             3059             MOVX    @DPTR,A
                    3060     ;                                  len_o=xbufin[5];
                    3061                             ; SOURCE LINE # 579
019A 900085         3062             MOV     DPTR,#xbufin+05H
019D E0             3063             MOVX    A,@DPTR
019E F500     F     3064             MOV     len_o,A
                    3065     ;                                  if (len_o>28) {len_o=28;}
                    3066                             ; SOURCE LINE # 580
01A0 E500     F     3067             MOV     A,len_o
01A2 D3             3068             SETB    C
01A3 941C           3069             SUBB    A,#01CH
01A5 4003           3070             JC      ?C0140
01A7 75001C   F     3071             MOV     len_o,#01CH
01AA                3072     ?C0140:
                    3073     ;                                  for(i=0;i<Len_p;i++)
                    3074                             ; SOURCE LINE # 581
01AA 750000   F     3075             MOV     i?340,#00H
01AD                3076     ?C0141:
01AD E500     F     3077             MOV     A,i?340
01AF C3             3078             CLR     C
01B0 7800     F     3079             MOV     R0,#LOW (Len_p)
01B2 96             3080             SUBB    A,@R0
01B3 5018           3081             JNC     ?C0142
                    3082     ;                     {                  
                    3083                             ; SOURCE LINE # 582
                    3084     ;                      zbuf[i]=xbufin[i]; 
                    3085                             ; SOURCE LINE # 583
A51 MACRO ASSEMBLER  MAIN_BKCD                                                            12/02/2009 12:07:33 PAGE    48

01B5 7480           3086             MOV     A,#LOW (xbufin)
01B7 2500     F     3087             ADD     A,i?340
01B9 F582           3088             MOV     DPL,A
01BB E4             3089             CLR     A
01BC 3400           3090             ADDC    A,#HIGH (xbufin)
01BE F583           3091             MOV     DPH,A
01C0 E0             3092             MOVX    A,@DPTR
01C1 FF             3093             MOV     R7,A
01C2 7400     F     3094             MOV     A,#LOW (zbuf)
01C4 2500     F     3095             ADD     A,i?340
01C6 F8             3096             MOV     R0,A
01C7 A617           3097             MOV     @R0,AR7
                    3098     ;              
                    3099     ;                      } 
                    3100                             ; SOURCE LINE # 585
01C9 0500     F     3101             INC     i?340
01CB 80E0           3102             SJMP    ?C0141
01CD                3103     ?C0142:
                    3104     ;                                        // nr++;
                    3105     ;                                  zbuf[1]=lineadd|0x80;
                    3106                             ; SOURCE LINE # 587
01CD E500     F     3107             MOV     A,lineadd
01CF 4480           3108             ORL     A,#080H
01D1 F500     F     3109             MOV     zbuf+01H,A
                    3110     ;                                       cmd = zbuf[3] &0x03;
                    3111                             ; SOURCE LINE # 588
01D3 E500     F     3112             MOV     A,zbuf+03H
01D5 5403           3113             ANL     A,#03H
01D7 F500     F     3114             MOV     cmd,A
                    3115     ;                                       if ((zbuf[3]&0xE0)  != 0) 
                    3116                             ; SOURCE LINE # 589
01D9 E500     F     3117             MOV     A,zbuf+03H
01DB 54E0           3118             ANL     A,#0E0H
01DD 7003           3119             JNZ     $ + 5H
01DF 020000   F     3120             LJMP    ?C0144
                    3121     ;                                       {
                    3122                             ; SOURCE LINE # 590
                    3123     ;                                         len =(zbuf[3] & 0xE0 )-0x20;  // aieuoay aeeia ea
                             eay oi..
                    3124                             ; SOURCE LINE # 591
01E2 24E0           3125             ADD     A,#0E0H
01E4 F500     F     3126             MOV     len,A
                    3127     ;                                         EEPR_ADDBUF[0]=zbuf[4];
                    3128                             ; SOURCE LINE # 592
01E6 7800     F     3129             MOV     R0,#LOW (EEPR_ADDBUF)
01E8 A600     F     3130             MOV     @R0,zbuf+04H
                    3131     ;                                         EEPR_ADDBUF[1]=zbuf[5];
                    3132                             ; SOURCE LINE # 593
01EA 08             3133             INC     R0
01EB A600     F     3134             MOV     @R0,zbuf+05H
                    3135     ;                                         TEMP=&zbuf[6];
                    3136                             ; SOURCE LINE # 594
01ED 7800     F     3137             MOV     R0,#LOW (TEMP)
01EF 7600     F     3138             MOV     @R0,#LOW (zbuf+06H)
                    3139     ;                                         if ((cmd ==1))//&(FL_BLOK_EEPR==0))
                    3140                             ; SOURCE LINE # 595
01F1 E500     F     3141             MOV     A,cmd
01F3 B40109         3142             CJNE    A,#01H,?C0145
                    3143     ;                                         {
                    3144                             ; SOURCE LINE # 596
                    3145     ;                                          FU_wepr(TEMP,len,&EEPR_ADDBUF[0]);
                    3146                             ; SOURCE LINE # 597
01F6 E6             3147             MOV     A,@R0
01F7 FF             3148             MOV     R7,A
01F8 7B00     F     3149             MOV     R3,#LOW (EEPR_ADDBUF)
01FA AD00     F     3150             MOV     R5,len
A51 MACRO ASSEMBLER  MAIN_BKCD                                                            12/02/2009 12:07:33 PAGE    49

01FC 120000   F     3151             LCALL   _FU_wepr
                    3152     ;                                          }                                      // write 
                             eeprom
                    3153                             ; SOURCE LINE # 598
01FF                3154     ?C0145:
                    3155     ;                                         if (cmd ==2)
                    3156                             ; SOURCE LINE # 599
01FF E500     F     3157             MOV     A,cmd
0201 6402           3158             XRL     A,#02H
0203 7033           3159             JNZ     ?C0146
                    3160     ;                                         {
                    3161                             ; SOURCE LINE # 600
                    3162     ;                                          FU_repr(TEMP,len,&EEPR_ADDBUF[0]);
                    3163                             ; SOURCE LINE # 601
0205 7800     F     3164             MOV     R0,#LOW (TEMP)
0207 E6             3165             MOV     A,@R0
0208 FF             3166             MOV     R7,A
0209 7B00     F     3167             MOV     R3,#LOW (EEPR_ADDBUF)
020B AD00     F     3168             MOV     R5,len
020D 120000   F     3169             LCALL   _FU_repr
                    3170     ;                                          for (i1=0;i1<len_o;i1++)
                    3171                             ; SOURCE LINE # 602
0210 750000   F     3172             MOV     i1?341,#00H
0213                3173     ?C0147:
0213 E500     F     3174             MOV     A,i1?341
0215 C3             3175             CLR     C
0216 9500     F     3176             SUBB    A,len_o
0218 5018           3177             JNC     ?C0148
                    3178     ;                                           {               
                    3179                             ; SOURCE LINE # 603
                    3180     ;                                            bufout[i1+6] = zbuf[i1+6];
                    3181                             ; SOURCE LINE # 604
021A 7400     F     3182             MOV     A,#LOW (zbuf+06H)
021C 2500     F     3183             ADD     A,i1?341
021E F8             3184             MOV     R0,A
021F E6             3185             MOV     A,@R0
0220 FF             3186             MOV     R7,A
0221 7446           3187             MOV     A,#LOW (bufout+06H)
0223 2500     F     3188             ADD     A,i1?341
0225 F582           3189             MOV     DPL,A
0227 E4             3190             CLR     A
0228 3400           3191             ADDC    A,#HIGH (bufout+06H)
022A F583           3192             MOV     DPH,A
022C EF             3193             MOV     A,R7
022D F0             3194             MOVX    @DPTR,A
                    3195     ;                                             }
                    3196                             ; SOURCE LINE # 605
022E 0500     F     3197             INC     i1?341
0230 80E1           3198             SJMP    ?C0147
0232                3199     ?C0148:
                    3200     ;                                            len_o =len_o+6;// (zbuf[5]&0x1F)+6;  
                    3201                             ; SOURCE LINE # 606
0232 7406           3202             MOV     A,#06H
0234 2500     F     3203             ADD     A,len_o
0236 F500     F     3204             MOV     len_o,A
                    3205     ;                                            }
                    3206                             ; SOURCE LINE # 607
0238                3207     ?C0146:
                    3208     ;                                           
                    3209     ;                                       if (cmd ==3)
                    3210                             ; SOURCE LINE # 609
0238 E500     F     3211             MOV     A,cmd
023A 6403           3212             XRL     A,#03H
023C 7046           3213             JNZ     ?C0150
                    3214     ;                                         {
                    3215                             ; SOURCE LINE # 610
A51 MACRO ASSEMBLER  MAIN_BKCD                                                            12/02/2009 12:07:33 PAGE    50

                    3216     ;                                          {
                    3217                             ; SOURCE LINE # 611
                    3218     ;                                          EA=0; 
                    3219                             ; SOURCE LINE # 612
023E C2AF           3220             CLR     EA
                    3221     ;                                          FU_wepr(TEMP,len,&EEPR_ADDBUF[0]);  
                    3222                             ; SOURCE LINE # 613
0240 7800     F     3223             MOV     R0,#LOW (TEMP)
0242 E6             3224             MOV     A,@R0
0243 FF             3225             MOV     R7,A
0244 7B00     F     3226             MOV     R3,#LOW (EEPR_ADDBUF)
0246 AD00     F     3227             MOV     R5,len
0248 120000   F     3228             LCALL   _FU_wepr
                    3229     ;                                          EA=1; 
                    3230                             ; SOURCE LINE # 614
024B D2AF           3231             SETB    EA
                    3232     ;                                          
                    3233     ;                                           }
                    3234                             ; SOURCE LINE # 616
                    3235     ;                                       //       зачем то чтение???
                    3236     ;                                               EA=0; 
                    3237                             ; SOURCE LINE # 618
024D C2AF           3238             CLR     EA
                    3239     ;                                          FU_repr(TEMP,len,&EEPR_ADDBUF[0]);
                    3240                             ; SOURCE LINE # 619
024F 7800     F     3241             MOV     R0,#LOW (TEMP)
0251 E6             3242             MOV     A,@R0
0252 FF             3243             MOV     R7,A
0253 7B00     F     3244             MOV     R3,#LOW (EEPR_ADDBUF)
0255 AD00     F     3245             MOV     R5,len
0257 120000   F     3246             LCALL   _FU_repr
                    3247     ;                                          EA=1; 
                    3248                             ; SOURCE LINE # 620
025A D2AF           3249             SETB    EA
                    3250     ;                                          
                    3251     ;                                         // len = zbuf[5]&0x1F;
                    3252     ;                                          for (i1=0;i1<len_o;i1++)
                    3253                             ; SOURCE LINE # 623
025C 750000   F     3254             MOV     i1?341,#00H
025F                3255     ?C0151:
025F E500     F     3256             MOV     A,i1?341
0261 C3             3257             CLR     C
0262 9500     F     3258             SUBB    A,len_o
0264 5018           3259             JNC     ?C0152
                    3260     ;                                           {                
                    3261                             ; SOURCE LINE # 624
                    3262     ;                                            bufout[i1+6] = zbuf[i1+6];
                    3263                             ; SOURCE LINE # 625
0266 7400     F     3264             MOV     A,#LOW (zbuf+06H)
0268 2500     F     3265             ADD     A,i1?341
026A F8             3266             MOV     R0,A
026B E6             3267             MOV     A,@R0
026C FF             3268             MOV     R7,A
026D 7446           3269             MOV     A,#LOW (bufout+06H)
026F 2500     F     3270             ADD     A,i1?341
0271 F582           3271             MOV     DPL,A
0273 E4             3272             CLR     A
0274 3400           3273             ADDC    A,#HIGH (bufout+06H)
0276 F583           3274             MOV     DPH,A
0278 EF             3275             MOV     A,R7
0279 F0             3276             MOVX    @DPTR,A
                    3277     ;                                             }
                    3278                             ; SOURCE LINE # 626
027A 0500     F     3279             INC     i1?341
027C 80E1           3280             SJMP    ?C0151
027E                3281     ?C0152:
A51 MACRO ASSEMBLER  MAIN_BKCD                                                            12/02/2009 12:07:33 PAGE    51

                    3282     ;                                          len_o =len_o+6; 
                    3283                             ; SOURCE LINE # 627
027E 7406           3284             MOV     A,#06H
0280 2500     F     3285             ADD     A,len_o
0282 F500     F     3286             MOV     len_o,A
                    3287     ;                                          }       // w/r eeprom
                    3288                             ; SOURCE LINE # 628
0284                3289     ?C0150:
                    3290     ;                                        
                    3291     ;                                       tmo=6;
                    3292                             ; SOURCE LINE # 630
0284 7800     F     3293             MOV     R0,#LOW (tmo)
0286 7606           3294             MOV     @R0,#06H
                    3295     ;                                       t=1;
                    3296                             ; SOURCE LINE # 631
0288 D200     F     3297             SETB    t
                    3298     ;                                       }
                    3299                             ; SOURCE LINE # 632
028A                3300     ?C0144:
                    3301     ;                                       
                    3302     ;                                       //*****************************************
                    3303     ;                                       if ((zbuf[3]&0xE0)  == 0) //no EEPROM
                    3304                             ; SOURCE LINE # 635
028A E500     F     3305             MOV     A,zbuf+03H
028C 54E0           3306             ANL     A,#0E0H
028E 6003           3307             JZ      $ + 5H
0290 020000   F     3308             LJMP    ?C0154
                    3309     ;                                        {
                    3310                             ; SOURCE LINE # 636
                    3311     ;                                       
                    3312     ;                                         if ((zbuf[3]&0x10) == 0x10)
                    3313                             ; SOURCE LINE # 638
0293 E500     F     3314             MOV     A,zbuf+03H
0295 30E42A         3315             JNB     ACC.4,?C0155
                    3316     ;                                          {
                    3317                             ; SOURCE LINE # 639
                    3318     ;                                         
                    3319     ;                                                        for (i1=0;i1<len_o;i1++)
                    3320                             ; SOURCE LINE # 641
0298 750000   F     3321             MOV     i1?341,#00H
029B                3322     ?C0156:
029B E500     F     3323             MOV     A,i1?341
029D C3             3324             CLR     C
029E 9500     F     3325             SUBB    A,len_o
02A0 5018           3326             JNC     ?C0157
                    3327     ;                                                               {
                    3328                             ; SOURCE LINE # 642
                    3329     ;                                                         bufout[i1] = zbuf[i1];
                    3330                             ; SOURCE LINE # 643
02A2 7400     F     3331             MOV     A,#LOW (zbuf)
02A4 2500     F     3332             ADD     A,i1?341
02A6 F8             3333             MOV     R0,A
02A7 E6             3334             MOV     A,@R0
02A8 FF             3335             MOV     R7,A
02A9 7440           3336             MOV     A,#LOW (bufout)
02AB 2500     F     3337             ADD     A,i1?341
02AD F582           3338             MOV     DPL,A
02AF E4             3339             CLR     A
02B0 3400           3340             ADDC    A,#HIGH (bufout)
02B2 F583           3341             MOV     DPH,A
02B4 EF             3342             MOV     A,R7
02B5 F0             3343             MOVX    @DPTR,A
                    3344     ;                                                       }
                    3345                             ; SOURCE LINE # 644
02B6 0500     F     3346             INC     i1?341
02B8 80E1           3347             SJMP    ?C0156
A51 MACRO ASSEMBLER  MAIN_BKCD                                                            12/02/2009 12:07:33 PAGE    52

02BA                3348     ?C0157:
                    3349     ;                                                       len_o=len_o-1;
                    3350                             ; SOURCE LINE # 645
02BA 1500     F     3351             DEC     len_o
                    3352     ;                                                               tmo=1;
                    3353                             ; SOURCE LINE # 646
02BC 7800     F     3354             MOV     R0,#LOW (tmo)
02BE 7601           3355             MOV     @R0,#01H
                    3356     ;                                                       t=1;
                    3357                             ; SOURCE LINE # 647
02C0 D200     F     3358             SETB    t
                    3359     ;                                               //      while (t == 1);while(t11 ==1);     
                                 //  ?aaou ieii?aiey ia?aaa?e
                    3360     ;                                               } 
                    3361                             ; SOURCE LINE # 649
02C2                3362     ?C0155:
                    3363     ;                                                 j = zbuf[4]&0x0F;
                    3364                             ; SOURCE LINE # 650
02C2 E500     F     3365             MOV     A,zbuf+04H
02C4 540F           3366             ANL     A,#0FH
02C6 FF             3367             MOV     R7,A
                    3368     ;---- Variable 'j?342' assigned to Register 'R7' ----
                    3369     ;                                               //  len = zbuf[5]&0x3F;
                    3370     ;                                             
                    3371     ;                                                 switch (zbuf[4]&0xF0) 
                    3372                             ; SOURCE LINE # 653
02C7 E500     F     3373             MOV     A,zbuf+04H
02C9 54F0           3374             ANL     A,#0F0H
02CB 24F0           3375             ADD     A,#0F0H
02CD 7003           3376             JNZ     $ + 5H
02CF 020000   F     3377             LJMP    ?C0179
02D2 24F0           3378             ADD     A,#0F0H
02D4 7003           3379             JNZ     $ + 5H
02D6 020000   F     3380             LJMP    ?C0187
02D9 2420           3381             ADD     A,#020H
02DB 6003           3382             JZ      $ + 5H
02DD 020000   F     3383             LJMP    ?C0154
                    3384     ;                                             { 
                    3385                             ; SOURCE LINE # 654
                    3386     ;                                                       case 0:   // 'yoi oneiaea ii?aaaeya
                             o ?oi ?aaioa i?ienoiaeo n IOEAAUI ?AAENO?II - AOOA?II AAIIUO                         
                    3387                             ; SOURCE LINE # 655
02E0                3388     ?C0160:
                    3389     ;                                                        {        // eiie?o?ony aaiiua n ee
                             iee eee iiaa?ony ia eeie?
                    3390                             ; SOURCE LINE # 656
                    3391     ;                                                          if (cmd == 3)                   
                                                
                    3392                             ; SOURCE LINE # 657
02E0 E500     F     3393             MOV     A,cmd
02E2 6403           3394             XRL     A,#03H
02E4 7053           3395             JNZ     ?C0161
                    3396     ;                                                        {
                    3397                             ; SOURCE LINE # 658
                    3398     ;                                                               for (i1=0;i1<len_o ; i1++)
                    3399                             ; SOURCE LINE # 659
02E6 F500     F     3400             MOV     i1?341,A
02E8                3401     ?C0162:
02E8 E500     F     3402             MOV     A,i1?341
02EA C3             3403             CLR     C
02EB 9500     F     3404             SUBB    A,len_o
02ED 5018           3405             JNC     ?C0163
                    3406     ;                                                                       {
                    3407                             ; SOURCE LINE # 660
                    3408     ;                                                                   lbuf[j]=zbuf[i1+6];
                    3409                             ; SOURCE LINE # 661
A51 MACRO ASSEMBLER  MAIN_BKCD                                                            12/02/2009 12:07:33 PAGE    53

02EF 7400     F     3410             MOV     A,#LOW (zbuf+06H)
02F1 2500     F     3411             ADD     A,i1?341
02F3 F8             3412             MOV     R0,A
02F4 E6             3413             MOV     A,@R0
02F5 FE             3414             MOV     R6,A
02F6 7400           3415             MOV     A,#LOW (lbuf)
02F8 2F             3416             ADD     A,R7
02F9 F582           3417             MOV     DPL,A
02FB E4             3418             CLR     A
02FC 3400           3419             ADDC    A,#HIGH (lbuf)
02FE F583           3420             MOV     DPH,A
0300 EE             3421             MOV     A,R6
0301 F0             3422             MOVX    @DPTR,A
                    3423     ;                                                                               j++;
                    3424                             ; SOURCE LINE # 662
0302 0F             3425             INC     R7
                    3426     ;                                                               }                  
                    3427                             ; SOURCE LINE # 663
0303 0500     F     3428             INC     i1?341
0305 80E1           3429             SJMP    ?C0162
0307                3430     ?C0163:
                    3431     ;                                                               len_o= len_o+6;
                    3432                             ; SOURCE LINE # 664
0307 7406           3433             MOV     A,#06H
0309 2500     F     3434             ADD     A,len_o
030B F500     F     3435             MOV     len_o,A
                    3436     ;                                                                       for(i=0;i<len_o-6;i
                             ++)
                    3437                             ; SOURCE LINE # 665
030D 750000   F     3438             MOV     i?340,#00H
0310                3439     ?C0165:
0310 E500     F     3440             MOV     A,len_o
0312 24FA           3441             ADD     A,#0FAH
0314 FE             3442             MOV     R6,A
0315 E500     F     3443             MOV     A,i?340
0317 C3             3444             CLR     C
0318 9E             3445             SUBB    A,R6
0319 501E           3446             JNC     ?C0161
                    3447     ;                                                                       {
                    3448                             ; SOURCE LINE # 666
                    3449     ;                                                                         bufout[i+6] = lbu
                             f[i];
                    3450                             ; SOURCE LINE # 667
031B 7400           3451             MOV     A,#LOW (lbuf)
031D 2500     F     3452             ADD     A,i?340
031F F582           3453             MOV     DPL,A
0321 E4             3454             CLR     A
0322 3400           3455             ADDC    A,#HIGH (lbuf)
0324 F583           3456             MOV     DPH,A
0326 E0             3457             MOVX    A,@DPTR
0327 FE             3458             MOV     R6,A
0328 7446           3459             MOV     A,#LOW (bufout+06H)
032A 2500     F     3460             ADD     A,i?340
032C F582           3461             MOV     DPL,A
032E E4             3462             CLR     A
032F 3400           3463             ADDC    A,#HIGH (bufout+06H)
0331 F583           3464             MOV     DPH,A
0333 EE             3465             MOV     A,R6
0334 F0             3466             MOVX    @DPTR,A
                    3467     ;                                                                        }
                    3468                             ; SOURCE LINE # 668
0335 0500     F     3469             INC     i?340
0337 80D7           3470             SJMP    ?C0165
                    3471     ;                                                                }
                    3472                             ; SOURCE LINE # 669
0339                3473     ?C0161:
A51 MACRO ASSEMBLER  MAIN_BKCD                                                            12/02/2009 12:07:33 PAGE    54

                    3474     ;                                                       if (cmd == 1)                      
                              
                    3475                             ; SOURCE LINE # 670
0339 E500     F     3476             MOV     A,cmd
033B B40128         3477             CJNE    A,#01H,?C0168
                    3478     ;                                                        {                  
                    3479                             ; SOURCE LINE # 671
                    3480     ;                                                     for (i1=0;i1<len_o ; i1++)
                    3481                             ; SOURCE LINE # 672
033E 750000   F     3482             MOV     i1?341,#00H
0341                3483     ?C0169:
0341 E500     F     3484             MOV     A,i1?341
0343 C3             3485             CLR     C
0344 9500     F     3486             SUBB    A,len_o
0346 5018           3487             JNC     ?C0170
                    3488     ;                                                               {       
                    3489                             ; SOURCE LINE # 673
                    3490     ;                                                           lbuf[j]=zbuf[i1+6];
                    3491                             ; SOURCE LINE # 674
0348 7400     F     3492             MOV     A,#LOW (zbuf+06H)
034A 2500     F     3493             ADD     A,i1?341
034C F8             3494             MOV     R0,A
034D E6             3495             MOV     A,@R0
034E FE             3496             MOV     R6,A
034F 7400           3497             MOV     A,#LOW (lbuf)
0351 2F             3498             ADD     A,R7
0352 F582           3499             MOV     DPL,A
0354 E4             3500             CLR     A
0355 3400           3501             ADDC    A,#HIGH (lbuf)
0357 F583           3502             MOV     DPH,A
0359 EE             3503             MOV     A,R6
035A F0             3504             MOVX    @DPTR,A
                    3505     ;                                                                       j++;
                    3506                             ; SOURCE LINE # 675
035B 0F             3507             INC     R7
                    3508     ;                                                               }
                    3509                             ; SOURCE LINE # 676
035C 0500     F     3510             INC     i1?341
035E 80E1           3511             SJMP    ?C0169
0360                3512     ?C0170:
                    3513     ;                                                         len_o= len_o+6;
                    3514                             ; SOURCE LINE # 677
0360 7406           3515             MOV     A,#06H
0362 2500     F     3516             ADD     A,len_o
0364 F500     F     3517             MOV     len_o,A
                    3518     ;                                                         }
                    3519                             ; SOURCE LINE # 678
0366                3520     ?C0168:
                    3521     ;                                               if (cmd == 2)                       
                    3522                             ; SOURCE LINE # 679
0366 E500     F     3523             MOV     A,cmd
0368 6402           3524             XRL     A,#02H
036A 6003           3525             JZ      $ + 5H
036C 020000   F     3526             LJMP    ?C0743
                    3527     ;                                                { for(i=0;i<len_o;i++)
                    3528                             ; SOURCE LINE # 680
036F F500     F     3529             MOV     i?340,A
0371                3530     ?C0173:
0371 E500     F     3531             MOV     A,i?340
0373 C3             3532             CLR     C
0374 9500     F     3533             SUBB    A,len_o
0376 501E           3534             JNC     ?C0174
                    3535     ;                                                               {
                    3536                             ; SOURCE LINE # 681
                    3537     ;                                                                 bufout[i+6] = lbuf[i];
                    3538                             ; SOURCE LINE # 682
A51 MACRO ASSEMBLER  MAIN_BKCD                                                            12/02/2009 12:07:33 PAGE    55

0378 7400           3539             MOV     A,#LOW (lbuf)
037A 2500     F     3540             ADD     A,i?340
037C F582           3541             MOV     DPL,A
037E E4             3542             CLR     A
037F 3400           3543             ADDC    A,#HIGH (lbuf)
0381 F583           3544             MOV     DPH,A
0383 E0             3545             MOVX    A,@DPTR
0384 FE             3546             MOV     R6,A
0385 7446           3547             MOV     A,#LOW (bufout+06H)
0387 2500     F     3548             ADD     A,i?340
0389 F582           3549             MOV     DPL,A
038B E4             3550             CLR     A
038C 3400           3551             ADDC    A,#HIGH (bufout+06H)
038E F583           3552             MOV     DPH,A
0390 EE             3553             MOV     A,R6
0391 F0             3554             MOVX    @DPTR,A
                    3555     ;                                                               }              
                    3556                             ; SOURCE LINE # 683
0392 0500     F     3557             INC     i?340
0394 80DB           3558             SJMP    ?C0173
0396                3559     ?C0174:
                    3560     ;                                                       //      zbuf[5]+=4;     
                    3561     ;                                                               if (flz!=0xFF)
                    3562                             ; SOURCE LINE # 685
0396 900000   F     3563             MOV     DPTR,#flz
0399 E0             3564             MOVX    A,@DPTR
039A FE             3565             MOV     R6,A
039B F4             3566             CPL     A
039C 7003           3567             JNZ     $ + 5H
039E 020000   F     3568             LJMP    ?C0176
                    3569     ;                                                               {
                    3570                             ; SOURCE LINE # 686
                    3571     ;                                                                       i=flz;
                    3572                             ; SOURCE LINE # 687
03A1 8E00     F     3573             MOV     i?340,R6
                    3574     ;                                                                       if (z0==4)
                    3575                             ; SOURCE LINE # 688
03A3 900000   F     3576             MOV     DPTR,#z0
03A6 E0             3577             MOVX    A,@DPTR
03A7 FE             3578             MOV     R6,A
03A8 6404           3579             XRL     A,#04H
03AA 7046           3580             JNZ     ?C0177
                    3581     ;                                                                       {       bufout[i+6]
                             =z1;
                    3582                             ; SOURCE LINE # 689
03AC A3             3583             INC     DPTR
03AD E0             3584             MOVX    A,@DPTR
03AE FD             3585             MOV     R5,A
03AF 7446           3586             MOV     A,#LOW (bufout+06H)
03B1 2500     F     3587             ADD     A,i?340
03B3 F582           3588             MOV     DPL,A
03B5 E4             3589             CLR     A
03B6 3400           3590             ADDC    A,#HIGH (bufout+06H)
03B8 F583           3591             MOV     DPH,A
03BA ED             3592             MOV     A,R5
03BB F0             3593             MOVX    @DPTR,A
                    3594     ;                                                                               bufout[i+7]
                             =z2;
                    3595                             ; SOURCE LINE # 690
03BC 900000   F     3596             MOV     DPTR,#z2
03BF E0             3597             MOVX    A,@DPTR
03C0 FD             3598             MOV     R5,A
03C1 7447           3599             MOV     A,#LOW (bufout+07H)
03C3 2500     F     3600             ADD     A,i?340
03C5 F582           3601             MOV     DPL,A
03C7 E4             3602             CLR     A
A51 MACRO ASSEMBLER  MAIN_BKCD                                                            12/02/2009 12:07:33 PAGE    56

03C8 3400           3603             ADDC    A,#HIGH (bufout+07H)
03CA F583           3604             MOV     DPH,A
03CC ED             3605             MOV     A,R5
03CD F0             3606             MOVX    @DPTR,A
                    3607     ;                                                                               bufout[i+8]
                             =z3;
                    3608                             ; SOURCE LINE # 691
03CE 900000   F     3609             MOV     DPTR,#z3
03D1 E0             3610             MOVX    A,@DPTR
03D2 FD             3611             MOV     R5,A
03D3 7448           3612             MOV     A,#LOW (bufout+08H)
03D5 2500     F     3613             ADD     A,i?340
03D7 F582           3614             MOV     DPL,A
03D9 E4             3615             CLR     A
03DA 3400           3616             ADDC    A,#HIGH (bufout+08H)
03DC F583           3617             MOV     DPH,A
03DE ED             3618             MOV     A,R5
03DF F0             3619             MOVX    @DPTR,A
                    3620     ;                                                                               bufout[i+9]
                             =z4;
                    3621                             ; SOURCE LINE # 692
03E0 900000   F     3622             MOV     DPTR,#z4
03E3 E0             3623             MOVX    A,@DPTR
03E4 FD             3624             MOV     R5,A
03E5 7449           3625             MOV     A,#LOW (bufout+09H)
03E7 2500     F     3626             ADD     A,i?340
03E9 F582           3627             MOV     DPL,A
03EB E4             3628             CLR     A
03EC 3400           3629             ADDC    A,#HIGH (bufout+09H)
03EE F583           3630             MOV     DPH,A
03F0 ED             3631             MOV     A,R5
03F1 F0             3632             MOVX    @DPTR,A
                    3633     ;                                                                       }
                    3634                             ; SOURCE LINE # 693
03F2                3635     ?C0177:
                    3636     ;                                                                       if (z0==2)
                    3637                             ; SOURCE LINE # 694
03F2 EE             3638             MOV     A,R6
03F3 B40224         3639             CJNE    A,#02H,?C0178
                    3640     ;                                                                       {
                    3641                             ; SOURCE LINE # 695
                    3642     ;                                                                               bufout[i+6]
                             =z3;
                    3643                             ; SOURCE LINE # 696
03F6 900000   F     3644             MOV     DPTR,#z3
03F9 E0             3645             MOVX    A,@DPTR
03FA FE             3646             MOV     R6,A
03FB 7446           3647             MOV     A,#LOW (bufout+06H)
03FD 2500     F     3648             ADD     A,i?340
03FF F582           3649             MOV     DPL,A
0401 E4             3650             CLR     A
0402 3400           3651             ADDC    A,#HIGH (bufout+06H)
0404 F583           3652             MOV     DPH,A
0406 EE             3653             MOV     A,R6
0407 F0             3654             MOVX    @DPTR,A
                    3655     ;                                                                               bufout[i+7]
                             =z4;
                    3656                             ; SOURCE LINE # 697
0408 900000   F     3657             MOV     DPTR,#z4
040B E0             3658             MOVX    A,@DPTR
040C FE             3659             MOV     R6,A
040D 7447           3660             MOV     A,#LOW (bufout+07H)
040F 2500     F     3661             ADD     A,i?340
0411 F582           3662             MOV     DPL,A
0413 E4             3663             CLR     A
0414 3400           3664             ADDC    A,#HIGH (bufout+07H)
A51 MACRO ASSEMBLER  MAIN_BKCD                                                            12/02/2009 12:07:33 PAGE    57

0416 F583           3665             MOV     DPH,A
0418 EE             3666             MOV     A,R6
0419 F0             3667             MOVX    @DPTR,A
                    3668     ;                                                                       }
                    3669                             ; SOURCE LINE # 698
041A                3670     ?C0178:
                    3671     ;                                                                       flz=0xFF;
                    3672                             ; SOURCE LINE # 699
041A 900000   F     3673             MOV     DPTR,#flz
041D 74FF           3674             MOV     A,#0FFH
041F F0             3675             MOVX    @DPTR,A
                    3676     ;                                                               }
                    3677                             ; SOURCE LINE # 700
0420                3678     ?C0176:
                    3679     ;                                          len_o=len_o+6;                     
                    3680                             ; SOURCE LINE # 701
0420 7406           3681             MOV     A,#06H
0422 2500     F     3682             ADD     A,len_o
0424 F500     F     3683             MOV     len_o,A
                    3684     ;                                                }
                    3685                             ; SOURCE LINE # 702
0426                3686     ?C0172:
                    3687     ;                                                       tmo=TM_LINE+TM_LINE;
                    3688                             ; SOURCE LINE # 703
                    3689     ;                                                       break;
                    3690                             ; SOURCE LINE # 704
0426 8054           3691             SJMP    ?C0743
                    3692     ;                                                       }
                    3693                             ; SOURCE LINE # 705
                    3694     ;                                       case 0x10:
                    3695                             ; SOURCE LINE # 706
0428                3696     ?C0179:
                    3697     ;                                        {
                    3698                             ; SOURCE LINE # 707
                    3699     ;                                          if ((j+len_o)<40) 
                    3700                             ; SOURCE LINE # 708
0428 E500     F     3701             MOV     A,len_o
042A FD             3702             MOV     R5,A
042B EF             3703             MOV     A,R7
042C 2D             3704             ADD     A,R5
042D FD             3705             MOV     R5,A
042E E4             3706             CLR     A
042F 33             3707             RLC     A
0430 FC             3708             MOV     R4,A
0431 C3             3709             CLR     C
0432 ED             3710             MOV     A,R5
0433 9428           3711             SUBB    A,#028H
0435 EC             3712             MOV     A,R4
0436 6480           3713             XRL     A,#080H
0438 9480           3714             SUBB    A,#080H
043A 503A           3715             JNC     ?C0180
                    3716     ;                                          {                     
                    3717                             ; SOURCE LINE # 709
                    3718     ;                                               if (cmd == 3)                      // write
                             /read bufout                
                    3719                             ; SOURCE LINE # 710
043C E500     F     3720             MOV     A,cmd
043E B40328         3721             CJNE    A,#03H,?C0181
                    3722     ;                                                {
                    3723                             ; SOURCE LINE # 711
                    3724     ;                                                  for (i1=0;i1<len_o; i1++)
                    3725                             ; SOURCE LINE # 712
0441 750000   F     3726             MOV     i1?341,#00H
0444                3727     ?C0182:
0444 E500     F     3728             MOV     A,i1?341
0446 C3             3729             CLR     C
A51 MACRO ASSEMBLER  MAIN_BKCD                                                            12/02/2009 12:07:33 PAGE    58

0447 9500     F     3730             SUBB    A,len_o
0449 5018           3731             JNC     ?C0183
                    3732     ;                                                    {
                    3733                             ; SOURCE LINE # 713
                    3734     ;                                                     bufout[j+6] = zbuf[i1+6];
                    3735                             ; SOURCE LINE # 714
044B 7400     F     3736             MOV     A,#LOW (zbuf+06H)
044D 2500     F     3737             ADD     A,i1?341
044F F8             3738             MOV     R0,A
0450 E6             3739             MOV     A,@R0
0451 FE             3740             MOV     R6,A
0452 7446           3741             MOV     A,#LOW (bufout+06H)
0454 2F             3742             ADD     A,R7
0455 F582           3743             MOV     DPL,A
0457 E4             3744             CLR     A
0458 3400           3745             ADDC    A,#HIGH (bufout+06H)
045A F583           3746             MOV     DPH,A
045C EE             3747             MOV     A,R6
045D F0             3748             MOVX    @DPTR,A
                    3749     ;                                                     j++;
                    3750                             ; SOURCE LINE # 715
045E 0F             3751             INC     R7
                    3752     ;                                                    }                  
                    3753                             ; SOURCE LINE # 716
045F 0500     F     3754             INC     i1?341
0461 80E1           3755             SJMP    ?C0182
0463                3756     ?C0183:
                    3757     ;                                                  len_o= len_o+6;
                    3758                             ; SOURCE LINE # 717
0463 7406           3759             MOV     A,#06H
0465 2500     F     3760             ADD     A,len_o
0467 F500     F     3761             MOV     len_o,A
                    3762     ;                                                }
                    3763                             ; SOURCE LINE # 718
0469                3764     ?C0181:
                    3765     ;                 /*
                    3766     ;                                               if (cmd == 1)                       //write
                              bufout
                    3767     ;                                                {                  
                    3768     ;                                                  for (i1=0;i1<len_o ; i1++)
                    3769     ;                                                   {
                    3770     ;                                                     bufout[j+6] = zbuf[i1+6];
                    3771     ;                                                     j++;
                    3772     ;                                                   }
                    3773     ;                                                  len_o= len_o+6;
                    3774     ;                                                }
                    3775     ;                               */
                    3776     ;                                               if (cmd == 2)                       // read
                              bufout
                    3777                             ; SOURCE LINE # 730
0469 E500     F     3778             MOV     A,cmd
046B B4020E         3779             CJNE    A,#02H,?C0186
                    3780     ;                                                {  len_o= len_o+6;                     
                    3781                             ; SOURCE LINE # 731
046E 7406           3782             MOV     A,#06H
0470 2500     F     3783             ADD     A,len_o
0472 F500     F     3784             MOV     len_o,A
                    3785     ;                                                }
                    3786                             ; SOURCE LINE # 732
                    3787     ;                                           }
                    3788                             ; SOURCE LINE # 733
0474 8006           3789             SJMP    ?C0186
0476                3790     ?C0180:
                    3791     ;                                         else {len_o=zbuf[2]&0x1F;}  
                    3792                             ; SOURCE LINE # 734
0476 E500     F     3793             MOV     A,zbuf+02H
A51 MACRO ASSEMBLER  MAIN_BKCD                                                            12/02/2009 12:07:33 PAGE    59

0478 541F           3794             ANL     A,#01FH
047A F500     F     3795             MOV     len_o,A
047C                3796     ?C0186:
                    3797     ;                                           tmo=TM_LINE+TM_LINE;                           
                    3798                             ; SOURCE LINE # 735
047C                3799     ?C0743:
047C 7800     F     3800             MOV     R0,#LOW (TM_LINE)
047E E6             3801             MOV     A,@R0
047F FF             3802             MOV     R7,A
0480 2F             3803             ADD     A,R7
0481 7800     F     3804             MOV     R0,#LOW (tmo)
0483 F6             3805             MOV     @R0,A
                    3806     ;                                          break;
                    3807                             ; SOURCE LINE # 736
0484 8014           3808             SJMP    ?C0154
                    3809     ;                                        }
                    3810                             ; SOURCE LINE # 737
                    3811     ;                                               case 0x20:                             
                    3812                             ; SOURCE LINE # 738
0486                3813     ?C0187:
                    3814     ;                                               {
                    3815                             ; SOURCE LINE # 739
                    3816     ;                                                 if((zbuf[6]&0xA0)!=0xA0) 
                    3817                             ; SOURCE LINE # 740
0486 E500     F     3818             MOV     A,zbuf+06H
0488 54A0           3819             ANL     A,#0A0H
048A FF             3820             MOV     R7,A
048B BFA00C         3821             CJNE    R7,#0A0H,?C0154
                    3822     ;                                                       {break; }
                    3823                             ; SOURCE LINE # 741
048E                3824     ?C0188:
                    3825     ;                                       //        fcoplbuf =0;
                    3826     ;                                                 len_o=zbuf[2];
                    3827                             ; SOURCE LINE # 743
048E 850000   F     3828             MOV     len_o,zbuf+02H
                    3829     ;                                        //       FL_21=0;
                    3830     ;                                                 FL_20=1;
                    3831                             ; SOURCE LINE # 745
0491 D200     F     3832             SETB    FL_20
                    3833     ;                                                 kmd();
                    3834                             ; SOURCE LINE # 746
0493 120000   F     3835             LCALL   kmd
                    3836     ;                                                 //len_o= len_o+6;
                    3837     ;                                                 tmo=1; 
                    3838                             ; SOURCE LINE # 748
0496 7800     F     3839             MOV     R0,#LOW (tmo)
0498 7601           3840             MOV     @R0,#01H
                    3841     ;                                        //       while(FL_20==1);
                    3842     ;                                        //       while(FL_21==1);
                    3843     ;                                                 break;                        
                    3844                             ; SOURCE LINE # 751
                    3845     ;                                               }          
                    3846                             ; SOURCE LINE # 752
                    3847     ;                                        }
                    3848                             ; SOURCE LINE # 753
                    3849     ;                                        } 
                    3850                             ; SOURCE LINE # 754
049A                3851     ?C0154:
                    3852     ;                                       
                    3853     ;                                       if (((zbuf[3]&0x08)==0)&(cmd==2))
                    3854                             ; SOURCE LINE # 756
049A E500     F     3855             MOV     A,zbuf+03H
049C 20E304         3856             JB      ACC.3,?C0190
049F 7F01           3857             MOV     R7,#01H
04A1 8002           3858             SJMP    ?C0191
04A3                3859     ?C0190:
A51 MACRO ASSEMBLER  MAIN_BKCD                                                            12/02/2009 12:07:33 PAGE    60

04A3 7F00           3860             MOV     R7,#00H
04A5                3861     ?C0191:
04A5 E500     F     3862             MOV     A,cmd
04A7 B40204         3863             CJNE    A,#02H,?C0192
04AA 7E01           3864             MOV     R6,#01H
04AC 8002           3865             SJMP    ?C0193
04AE                3866     ?C0192:
04AE 7E00           3867             MOV     R6,#00H
04B0                3868     ?C0193:
04B0 EF             3869             MOV     A,R7
04B1 5E             3870             ANL     A,R6
04B2 6009           3871             JZ      ?C0189
                    3872     ;                                        {                                            
                    3873                             ; SOURCE LINE # 757
                    3874     ;                                          bufout[2]=len_o+1; t = 1;
                    3875                             ; SOURCE LINE # 758
04B4 E500     F     3876             MOV     A,len_o
04B6 04             3877             INC     A
04B7 900042         3878             MOV     DPTR,#bufout+02H
04BA F0             3879             MOVX    @DPTR,A
04BB D200     F     3880             SETB    t
                    3881     ;                                        //  while(t==1);
                    3882     ;                                        }
                    3883                             ; SOURCE LINE # 760
04BD                3884     ?C0189:
                    3885     ;                                                     
                    3886     ;                                       if (((zbuf[3] &0x08)==0)&(cmd==3)) 
                    3887                             ; SOURCE LINE # 762
04BD E500     F     3888             MOV     A,zbuf+03H
04BF 20E304         3889             JB      ACC.3,?C0195
04C2 7F01           3890             MOV     R7,#01H
04C4 8002           3891             SJMP    ?C0196
04C6                3892     ?C0195:
04C6 7F00           3893             MOV     R7,#00H
04C8                3894     ?C0196:
04C8 E500     F     3895             MOV     A,cmd
04CA B40304         3896             CJNE    A,#03H,?C0197
04CD 7E01           3897             MOV     R6,#01H
04CF 8002           3898             SJMP    ?C0198
04D1                3899     ?C0197:
04D1 7E00           3900             MOV     R6,#00H
04D3                3901     ?C0198:
04D3 EF             3902             MOV     A,R7
04D4 5E             3903             ANL     A,R6
04D5 6009           3904             JZ      ?C0194
                    3905     ;                                        { 
                    3906                             ; SOURCE LINE # 763
                    3907     ;                                         
                    3908     ;                                         //while(t==1);
                    3909     ;                                          bufout[2]=len_o+1; t = 1;                     
                    3910                             ; SOURCE LINE # 766
04D7 E500     F     3911             MOV     A,len_o
04D9 04             3912             INC     A
04DA 900042         3913             MOV     DPTR,#bufout+02H
04DD F0             3914             MOVX    @DPTR,A
04DE D200     F     3915             SETB    t
                    3916     ;                                                        
                    3917     ;                                        }              
                    3918                             ; SOURCE LINE # 768
04E0                3919     ?C0194:
                    3920     ;                                       if (((zbuf[3] &0x0C)==4)&(cmd!=0))  
                    3921                             ; SOURCE LINE # 769
04E0 E500     F     3922             MOV     A,zbuf+03H
04E2 540C           3923             ANL     A,#0CH
04E4 FF             3924             MOV     R7,A
04E5 BF0404         3925             CJNE    R7,#04H,?C0200
A51 MACRO ASSEMBLER  MAIN_BKCD                                                            12/02/2009 12:07:33 PAGE    61

04E8 7F01           3926             MOV     R7,#01H
04EA 8002           3927             SJMP    ?C0201
04EC                3928     ?C0200:
04EC 7F00           3929             MOV     R7,#00H
04EE                3930     ?C0201:
04EE E500     F     3931             MOV     A,cmd
04F0 6004           3932             JZ      ?C0202
04F2 7E01           3933             MOV     R6,#01H
04F4 8002           3934             SJMP    ?C0203
04F6                3935     ?C0202:
04F6 7E00           3936             MOV     R6,#00H
04F8                3937     ?C0203:
04F8 EE             3938             MOV     A,R6
04F9 5F             3939             ANL     A,R7
04FA 7003           3940             JNZ     $ + 5H
04FC 020000   F     3941             LJMP    ?C0101
                    3942     ;                                        {
                    3943                             ; SOURCE LINE # 770
                    3944     ;                                        // while(t==1);
                    3945     ;                                        // while(ztld ==1);
                    3946     ;                                                               //зачем то???   
                    3947     ;                                       //       sbros();
                    3948     ;                                                IT0=1;
                    3949                             ; SOURCE LINE # 775
04FF D288           3950             SETB    IT0
                    3951     ;                                                IE0=1;
                    3952                             ; SOURCE LINE # 776
0501 D289           3953             SETB    IE0
                    3954     ;                                         }
                    3955                             ; SOURCE LINE # 777
                    3956     ;                       }
                    3957                             ; SOURCE LINE # 778
0503 020000   F     3958             LJMP    ?C0101
0506                3959     ?C0139:
                    3960     ;                       else
                    3961     ;                       {       
                    3962                             ; SOURCE LINE # 780
                    3963     ;                               st_ser=5;
                    3964                             ; SOURCE LINE # 781
0506                3965     ?C0742:
                    3966     ;                               nr1=2;
                    3967                             ; SOURCE LINE # 782
0506 8000           3968             SJMP    ?C0744
                    3969     ;                               return;
                    3970     ;                       }
                    3971                             ; SOURCE LINE # 784
                    3972     ;               }
                    3973                             ; SOURCE LINE # 785
0508                3974     ?C0127:
                    3975     ;               else 
                    3976     ;               {
                    3977                             ; SOURCE LINE # 787
                    3978     ;                       st_ser=5;
                    3979                             ; SOURCE LINE # 788
0508                3980     ?C0744:
0508 900000   F     3981             MOV     DPTR,#st_ser
050B 7405           3982             MOV     A,#05H
050D F0             3983             MOVX    @DPTR,A
                    3984     ;                       nr1=2;
                    3985                             ; SOURCE LINE # 789
050E 7800     F     3986             MOV     R0,#LOW (nr1)
0510 7602           3987             MOV     @R0,#02H
0512 020000   F     3988             LJMP    ?C0101
                    3989     ;                       return;
                    3990     ;               }
                    3991                             ; SOURCE LINE # 791
A51 MACRO ASSEMBLER  MAIN_BKCD                                                            12/02/2009 12:07:33 PAGE    62

                    3992     ;       }
                    3993                             ; SOURCE LINE # 792
                    3994     ;       return;                            
                    3995     ; }
                    3996                             ; SOURCE LINE # 794
0515                3997     ?C0086:
                    3998     ; 
                    3999     ;    if ((TI == 1)&(WR==1))
                    4000                             ; SOURCE LINE # 796
0515 30B604         4001             JNB     WR,?C0207
0518 7F01           4002             MOV     R7,#01H
051A 8002           4003             SJMP    ?C0208
051C                4004     ?C0207:
051C 7F00           4005             MOV     R7,#00H
051E                4006     ?C0208:
051E 309904         4007             JNB     TI,?C0209
0521 7E01           4008             MOV     R6,#01H
0523 8002           4009             SJMP    ?C0210
0525                4010     ?C0209:
0525 7E00           4011             MOV     R6,#00H
0527                4012     ?C0210:
0527 EE             4013             MOV     A,R6
0528 5F             4014             ANL     A,R7
0529 7003           4015             JNZ     $ + 5H
052B 020000   F     4016             LJMP    ?C0101
                    4017     ;    { 
                    4018                             ; SOURCE LINE # 797
                    4019     ;                       TI=0;
                    4020                             ; SOURCE LINE # 798
052E C299           4021             CLR     TI
                    4022     ;                       t11=0;
                    4023                             ; SOURCE LINE # 799
0530 C200     F     4024             CLR     t11
                    4025     ;                       if ((st_ser==30)|(st_ser==20)|(st_ser==40))
                    4026                             ; SOURCE LINE # 800
0532 900000   F     4027             MOV     DPTR,#st_ser
0535 E0             4028             MOVX    A,@DPTR
0536 FF             4029             MOV     R7,A
0537 B41404         4030             CJNE    A,#014H,?C0212
053A 7E01           4031             MOV     R6,#01H
053C 8002           4032             SJMP    ?C0213
053E                4033     ?C0212:
053E 7E00           4034             MOV     R6,#00H
0540                4035     ?C0213:
0540 EF             4036             MOV     A,R7
0541 B41E04         4037             CJNE    A,#01EH,?C0214
0544 7F01           4038             MOV     R7,#01H
0546 8002           4039             SJMP    ?C0215
0548                4040     ?C0214:
0548 7F00           4041             MOV     R7,#00H
054A                4042     ?C0215:
054A EF             4043             MOV     A,R7
054B 4E             4044             ORL     A,R6
054C FF             4045             MOV     R7,A
054D 900000   F     4046             MOV     DPTR,#st_ser
0550 E0             4047             MOVX    A,@DPTR
0551 B42804         4048             CJNE    A,#028H,?C0216
0554 7E01           4049             MOV     R6,#01H
0556 8002           4050             SJMP    ?C0217
0558                4051     ?C0216:
0558 7E00           4052             MOV     R6,#00H
055A                4053     ?C0217:
055A EE             4054             MOV     A,R6
055B 4F             4055             ORL     A,R7
055C 7003           4056             JNZ     $ + 5H
055E 020000   F     4057             LJMP    ?C0101
A51 MACRO ASSEMBLER  MAIN_BKCD                                                            12/02/2009 12:07:33 PAGE    63

                    4058     ;                       {
                    4059                             ; SOURCE LINE # 801
                    4060     ;                       if (nro<=5)
                    4061                             ; SOURCE LINE # 802
0561 7800     F     4062             MOV     R0,#LOW (nro)
0563 E6             4063             MOV     A,@R0
0564 FF             4064             MOV     R7,A
0565 D3             4065             SETB    C
0566 9405           4066             SUBB    A,#05H
0568 5027           4067             JNC     ?C0218
                    4068     ;                       {        if (nro==2)
                    4069                             ; SOURCE LINE # 803
056A EF             4070             MOV     A,R7
056B B40205         4071             CJNE    A,#02H,?C0219
                    4072     ;                                       tmp=bufout[2];
                    4073                             ; SOURCE LINE # 804
056E 900042         4074             MOV     DPTR,#bufout+02H
0571 8074           4075             SJMP    ?C0745
0573                4076     ?C0219:
                    4077     ;                                else
                    4078     ;                                       if (nro==1)
                    4079                             ; SOURCE LINE # 806
0573 7800     F     4080             MOV     R0,#LOW (nro)
0575 E6             4081             MOV     A,@R0
0576 FF             4082             MOV     R7,A
0577 B40110         4083             CJNE    A,#01H,?C0221
                    4084     ;                                               {tmp=zbuf[1]; 
                    4085                             ; SOURCE LINE # 807
057A 7800     F     4086             MOV     R0,#LOW (tmp)
057C A600     F     4087             MOV     @R0,zbuf+01H
                    4088     ;                                                 crco=0;
                    4089                             ; SOURCE LINE # 808
057E 7800     F     4090             MOV     R0,#LOW (crco)
0580 7600           4091             MOV     @R0,#00H
                    4092     ;                                                 st_ser=40;
                    4093                             ; SOURCE LINE # 809
0582 900000   F     4094             MOV     DPTR,#st_ser
0585 7428           4095             MOV     A,#028H
0587 F0             4096             MOVX    @DPTR,A
                    4097     ;                                       }
                    4098                             ; SOURCE LINE # 810
0588 8061           4099             SJMP    ?C0223
058A                4100     ?C0221:
                    4101     ;                                       else
                    4102     ;                                               tmp=zbuf[nro];
                    4103                             ; SOURCE LINE # 812
058A 7400     F     4104             MOV     A,#LOW (zbuf)
058C 2F             4105             ADD     A,R7
058D F8             4106             MOV     R0,A
058E E6             4107             MOV     A,@R0
                    4108     ;                       }
                    4109                             ; SOURCE LINE # 813
058F 8057           4110             SJMP    ?C0747
0591                4111     ?C0218:
                    4112     ;                       else 
                    4113     ;                               if (nro==len_o)
                    4114                             ; SOURCE LINE # 815
0591 7800     F     4115             MOV     R0,#LOW (nro)
0593 E6             4116             MOV     A,@R0
0594 FF             4117             MOV     R7,A
0595 B50006   F     4118             CJNE    A,len_o,?C0224
                    4119     ;                               {//     status=st_ser;
                    4120                             ; SOURCE LINE # 816
                    4121     ; 
                    4122     ;                                       tmp=status;
                    4123                             ; SOURCE LINE # 818
A51 MACRO ASSEMBLER  MAIN_BKCD                                                            12/02/2009 12:07:33 PAGE    64

0598 7800     F     4124             MOV     R0,#LOW (tmp)
059A A600     F     4125             MOV     @R0,status
                    4126     ;                               }
                    4127                             ; SOURCE LINE # 819
059C 804D           4128             SJMP    ?C0223
059E                4129     ?C0224:
                    4130     ;                               else
                    4131     ;                                       if (nro==len_o+1)
                    4132                             ; SOURCE LINE # 821
059E E500     F     4133             MOV     A,len_o
05A0 2401           4134             ADD     A,#01H
05A2 FD             4135             MOV     R5,A
05A3 E4             4136             CLR     A
05A4 33             4137             RLC     A
05A5 FC             4138             MOV     R4,A
05A6 7E00           4139             MOV     R6,#00H
05A8 EF             4140             MOV     A,R7
05A9 B51512         4141             CJNE    A,AR5,?C0226
05AC EE             4142             MOV     A,R6
05AD B5140E         4143             CJNE    A,AR4,?C0226
                    4144     ;                                               if (kon_t==1)
                    4145                             ; SOURCE LINE # 822
05B0 7800     F     4146             MOV     R0,#LOW (crco)
05B2 E6             4147             MOV     A,@R0
05B3 300006   F     4148             JNB     kon_t,?C0227
                    4149     ;                                                       {tmp=crco+1;}
                    4150                             ; SOURCE LINE # 823
05B6 04             4151             INC     A
05B7 7900     F     4152             MOV     R1,#LOW (tmp)
05B9 F7             4153             MOV     @R1,A
05BA 802F           4154             SJMP    ?C0223
05BC                4155     ?C0227:
                    4156     ;                                               else
                    4157     ;                                                       tmp=crco;
                    4158                             ; SOURCE LINE # 825
05BC                4159     ?C0746:
05BC 802A           4160             SJMP    ?C0747
05BE                4161     ?C0226:
                    4162     ;                                       else
                    4163     ;                                               if (nro>len_o+1)
                    4164                             ; SOURCE LINE # 827
05BE D3             4165             SETB    C
05BF EF             4166             MOV     A,R7
05C0 9D             4167             SUBB    A,R5
05C1 EC             4168             MOV     A,R4
05C2 6480           4169             XRL     A,#080H
05C4 F8             4170             MOV     R0,A
05C5 EE             4171             MOV     A,R6
05C6 6480           4172             XRL     A,#080H
05C8 98             4173             SUBB    A,R0
05C9 4010           4174             JC      ?C0230
                    4175     ;                                                       {
                    4176                             ; SOURCE LINE # 828
                    4177     ;                                                       crco=0;
                    4178                             ; SOURCE LINE # 829
05CB 7800     F     4179             MOV     R0,#LOW (crco)
05CD 7600           4180             MOV     @R0,#00H
                    4181     ;                                                       WR=0;
                    4182                             ; SOURCE LINE # 830
05CF C2B6           4183             CLR     WR
                    4184     ;                                       //              kon_t=0;
                    4185     ;                                                       t=0;
                    4186                             ; SOURCE LINE # 832
05D1 C200     F     4187             CLR     t
                    4188     ;                                                       st_ser=5;
                    4189                             ; SOURCE LINE # 833
A51 MACRO ASSEMBLER  MAIN_BKCD                                                            12/02/2009 12:07:33 PAGE    65

05D3                4190     ?C0738:
05D3 900000   F     4191             MOV     DPTR,#st_ser
05D6 7405           4192             MOV     A,#05H
05D8 F0             4193             MOVX    @DPTR,A
                    4194     ;                                               //      nro=0;
                    4195     ;                                                       goto kon;
                    4196                             ; SOURCE LINE # 835
05D9 801C           4197             SJMP    ?C0101
                    4198     ;                                                       }
                    4199                             ; SOURCE LINE # 836
05DB                4200     ?C0230:
                    4201     ;                                               else
                    4202     ;                                               tmp=bufout[nro];
                    4203                             ; SOURCE LINE # 838
05DB 7800     F     4204             MOV     R0,#LOW (nro)
05DD E6             4205             MOV     A,@R0
05DE 2440           4206             ADD     A,#LOW (bufout)
05E0 F582           4207             MOV     DPL,A
05E2 E4             4208             CLR     A
05E3 3400           4209             ADDC    A,#HIGH (bufout)
05E5 F583           4210             MOV     DPH,A
05E7                4211     ?C0745:
05E7 E0             4212             MOVX    A,@DPTR
05E8                4213     ?C0747:
05E8 7800     F     4214             MOV     R0,#LOW (tmp)
05EA F6             4215             MOV     @R0,A
05EB                4216     ?C0223:
                    4217     ;                       SBUF=tmp;
                    4218                             ; SOURCE LINE # 839
05EB 7800     F     4219             MOV     R0,#LOW (tmp)
05ED E6             4220             MOV     A,@R0
05EE F599           4221             MOV     SBUF,A
                    4222     ;                       crco+=tmp;
                    4223                             ; SOURCE LINE # 840
05F0 7800     F     4224             MOV     R0,#LOW (crco)
05F2 26             4225             ADD     A,@R0
05F3 F6             4226             MOV     @R0,A
                    4227     ;                       nro++;
                    4228                             ; SOURCE LINE # 841
05F4 7800     F     4229             MOV     R0,#LOW (nro)
05F6 06             4230             INC     @R0
                    4231     ;                       }                                
                    4232                             ; SOURCE LINE # 842
                    4233     ;       }
                    4234                             ; SOURCE LINE # 843
                    4235     ; 
                    4236     ;   kon:
                    4237                             ; SOURCE LINE # 845
05F7                4238     ?ser_int?kon:
                    4239     ; 
                    4240     ; 
                    4241     ;       
                    4242     ; 
                    4243     ; return;
                    4244     ; }
                    4245                             ; SOURCE LINE # 851
05F7                4246     ?C0101:
05F7 D0D0           4247             POP     PSW
05F9 D082           4248             POP     DPL
05FB D083           4249             POP     DPH
05FD D0F0           4250             POP     B
05FF D0E0           4251             POP     ACC
0601 32             4252             RETI    
                    4253     ; END OF ser_int
                    4254     
                    4255     ; 
A51 MACRO ASSEMBLER  MAIN_BKCD                                                            12/02/2009 12:07:33 PAGE    66

                    4256     ; 
                    4257     ; 
                    4258     ; void kmd (void) //using 3
                    4259     
----                4260             RSEG  ?PR?kmd?MAIN_BKCD
0000                4261     kmd:
                    4262             USING   0
                    4263                             ; SOURCE LINE # 855
                    4264     ; {
                    4265                             ; SOURCE LINE # 856
                    4266     ; 
                    4267     ;  #pragma asm
                    4268     ;       PUSH ACC
0000 C0E0           4269               PUSH ACC
                    4270     ;       PUSH B
0002 C0F0           4271               PUSH B
                    4272     ;       PUSH DPH
0004 C083           4273               PUSH DPH
                    4274     ;       PUSH DPL
0006 C082           4275               PUSH DPL
                    4276     ;       PUSH PSW
0008 C0D0           4277               PUSH PSW
                    4278     ;       MOV     PSW,#018H
000A 75D018         4279               MOV   PSW,#018H
                    4280     ; #pragma endasm
                    4281     ; 
                    4282     ;  if(FL_20==1)
                    4283                             ; SOURCE LINE # 867
000D 200003   F     4284             JB      FL_20,$ + 6H
0010 020000   F     4285             LJMP    ?C0232
                    4286     ;      {                                   
                    4287                             ; SOURCE LINE # 868
                    4288     ;        j = zbuf[4]&0x0F;
                    4289                             ; SOURCE LINE # 869
0013 E500     F     4290             MOV     A,zbuf+04H
0015 540F           4291             ANL     A,#0FH
0017 FF             4292             MOV     R7,A
0018 7800     F     4293             MOV     R0,#LOW (j)
001A F6             4294             MOV     @R0,A
                    4295     ;        len = zbuf[5]&0x1F;
                    4296                             ; SOURCE LINE # 870
001B E500     F     4297             MOV     A,zbuf+05H
001D 541F           4298             ANL     A,#01FH
001F F500     F     4299             MOV     len,A
                    4300     ; 
                    4301     ;    if ((j+len)<70) //<3)
                    4302                             ; SOURCE LINE # 872
0021 2F             4303             ADD     A,R7
0022 FF             4304             MOV     R7,A
0023 E4             4305             CLR     A
0024 33             4306             RLC     A
0025 FE             4307             MOV     R6,A
0026 C3             4308             CLR     C
0027 EF             4309             MOV     A,R7
0028 9446           4310             SUBB    A,#046H
002A EE             4311             MOV     A,R6
002B 6480           4312             XRL     A,#080H
002D 9480           4313             SUBB    A,#080H
002F 4003           4314             JC      $ + 5H
0031 020000   F     4315             LJMP    ?C0233
                    4316     ;       {
                    4317                             ; SOURCE LINE # 873
                    4318     ;       // if ((cmd == 1)| (cmd == 3))                  // write 
                    4319     ;         //  {
                    4320     ;             adcins[0] = zbuf[6];
                    4321                             ; SOURCE LINE # 876
A51 MACRO ASSEMBLER  MAIN_BKCD                                                            12/02/2009 12:07:33 PAGE    67

0034 7800     F     4322             MOV     R0,#LOW (adcins)
0036 A600     F     4323             MOV     @R0,zbuf+06H
                    4324     ;             adcins[1] = zbuf[7];
                    4325                             ; SOURCE LINE # 877
0038 08             4326             INC     R0
0039 A600     F     4327             MOV     @R0,zbuf+07H
                    4328     ; //MMMMMMMMMM
                    4329     ;             for(j=0;j<10;j++)
                    4330                             ; SOURCE LINE # 879
003B E4             4331             CLR     A
003C 7800     F     4332             MOV     R0,#LOW (j)
003E F6             4333             MOV     @R0,A
003F                4334     ?C0234:
                    4335     ;                {
                    4336                             ; SOURCE LINE # 880
                    4337     ;                 adcbuf[j]=zbuf[8+j];
                    4338                             ; SOURCE LINE # 881
003F 7800     F     4339             MOV     R0,#LOW (j)
0041 E6             4340             MOV     A,@R0
0042 FF             4341             MOV     R7,A
0043 2400     F     4342             ADD     A,#LOW (zbuf+08H)
0045 F8             4343             MOV     R0,A
0046 E6             4344             MOV     A,@R0
0047 FE             4345             MOV     R6,A
0048 7400     F     4346             MOV     A,#LOW (adcbuf)
004A 2F             4347             ADD     A,R7
004B F8             4348             MOV     R0,A
004C A606           4349             MOV     @R0,AR6
                    4350     ;                }
                    4351                             ; SOURCE LINE # 882
004E 7800     F     4352             MOV     R0,#LOW (j)
0050 06             4353             INC     @R0
0051 E6             4354             MOV     A,@R0
0052 B40AEA         4355             CJNE    A,#0AH,?C0234
0055                4356     ?C0235:
                    4357     ; 
                    4358     ;         //    if((adcins[0]&0x80)==0x80)
                    4359     ;               //       { ADC0=20; flagadc = 1;}
                    4360     ;             len = 0x08;
                    4361                             ; SOURCE LINE # 886
0055 750008   F     4362             MOV     len,#08H
                    4363     ;          // }      
                    4364     ;           if (cmd == 2)                   // rd 
                    4365                             ; SOURCE LINE # 888
0058 E500     F     4366             MOV     A,cmd
005A B4020B         4367             CJNE    A,#02H,?C0237
                    4368     ;              {
                    4369                             ; SOURCE LINE # 889
                    4370     ;                bufout[6] = adcins[0];
                    4371                             ; SOURCE LINE # 890
005D 7800     F     4372             MOV     R0,#LOW (adcins)
005F E6             4373             MOV     A,@R0
0060 900046         4374             MOV     DPTR,#bufout+06H
0063 F0             4375             MOVX    @DPTR,A
                    4376     ;                bufout[7] = adcins[1];
                    4377                             ; SOURCE LINE # 891
0064 08             4378             INC     R0
0065 E6             4379             MOV     A,@R0
0066 A3             4380             INC     DPTR
0067 F0             4381             MOVX    @DPTR,A
                    4382     ;                //len = 0x08;
                    4383     ;              }
                    4384                             ; SOURCE LINE # 893
0068                4385     ?C0237:
                    4386     ;           //if (cmd == 3)   
                    4387     ;           {FL_21=1;}
A51 MACRO ASSEMBLER  MAIN_BKCD                                                            12/02/2009 12:07:33 PAGE    68

                    4388                             ; SOURCE LINE # 895
0068 D200     F     4389             SETB    FL_21
                    4390     ;           if((cmd==2)&(zbuf[6]==0xB7)) {FL_21=1;cmd=1;}//читать FLASH циклически(DEC ADR)
                              
                    4391                             ; SOURCE LINE # 896
006A E500     F     4392             MOV     A,zbuf+06H
006C B4B704         4393             CJNE    A,#0B7H,?C0239
006F 7F01           4394             MOV     R7,#01H
0071 8002           4395             SJMP    ?C0240
0073                4396     ?C0239:
0073 7F00           4397             MOV     R7,#00H
0075                4398     ?C0240:
0075 E500     F     4399             MOV     A,cmd
0077 B40204         4400             CJNE    A,#02H,?C0241
007A 7E01           4401             MOV     R6,#01H
007C 8002           4402             SJMP    ?C0242
007E                4403     ?C0241:
007E 7E00           4404             MOV     R6,#00H
0080                4405     ?C0242:
0080 EE             4406             MOV     A,R6
0081 5F             4407             ANL     A,R7
0082 6005           4408             JZ      ?C0238
0084 D200     F     4409             SETB    FL_21
0086 750001   F     4410             MOV     cmd,#01H
0089                4411     ?C0238:
                    4412     ;           if((cmd==2)&(zbuf[6]==0xB8)) {FL_21=1;cmd=1;}//читать FLASH циклически (INC ADR
                             ) 
                    4413                             ; SOURCE LINE # 897
0089 E500     F     4414             MOV     A,zbuf+06H
008B B4B804         4415             CJNE    A,#0B8H,?C0244
008E 7F01           4416             MOV     R7,#01H
0090 8002           4417             SJMP    ?C0245
0092                4418     ?C0244:
0092 7F00           4419             MOV     R7,#00H
0094                4420     ?C0245:
0094 E500     F     4421             MOV     A,cmd
0096 B40204         4422             CJNE    A,#02H,?C0246
0099 7E01           4423             MOV     R6,#01H
009B 8002           4424             SJMP    ?C0247
009D                4425     ?C0246:
009D 7E00           4426             MOV     R6,#00H
009F                4427     ?C0247:
009F EE             4428             MOV     A,R6
00A0 5F             4429             ANL     A,R7
00A1 6005           4430             JZ      ?C0243
00A3 D200     F     4431             SETB    FL_21
00A5 750001   F     4432             MOV     cmd,#01H
00A8                4433     ?C0243:
                    4434     ;           if((cmd==2)&(zbuf[6]==0xB3)) {FL_21=1;}//читать FLASH          0x3B
                    4435                             ; SOURCE LINE # 898
00A8 E500     F     4436             MOV     A,zbuf+06H
00AA B4B304         4437             CJNE    A,#0B3H,?C0249
00AD 7F01           4438             MOV     R7,#01H
00AF 8002           4439             SJMP    ?C0250
00B1                4440     ?C0249:
00B1 7F00           4441             MOV     R7,#00H
00B3                4442     ?C0250:
00B3 E500     F     4443             MOV     A,cmd
00B5 B40204         4444             CJNE    A,#02H,?C0251
00B8 7E01           4445             MOV     R6,#01H
00BA 8002           4446             SJMP    ?C0252
00BC                4447     ?C0251:
00BC 7E00           4448             MOV     R6,#00H
00BE                4449     ?C0252:
00BE EE             4450             MOV     A,R6
00BF 5F             4451             ANL     A,R7
A51 MACRO ASSEMBLER  MAIN_BKCD                                                            12/02/2009 12:07:33 PAGE    69

00C0 6002           4452             JZ      ?C0248
00C2 D200     F     4453             SETB    FL_21
00C4                4454     ?C0248:
                    4455     ;           if((cmd==1)&(zbuf[6]==0xB3)) {FL_21=1;}//писать FLASH 
                    4456                             ; SOURCE LINE # 899
00C4 E500     F     4457             MOV     A,zbuf+06H
00C6 B4B304         4458             CJNE    A,#0B3H,?C0254
00C9 7F01           4459             MOV     R7,#01H
00CB 8002           4460             SJMP    ?C0255
00CD                4461     ?C0254:
00CD 7F00           4462             MOV     R7,#00H
00CF                4463     ?C0255:
00CF E500     F     4464             MOV     A,cmd
00D1 B40104         4465             CJNE    A,#01H,?C0256
00D4 7E01           4466             MOV     R6,#01H
00D6 8002           4467             SJMP    ?C0257
00D8                4468     ?C0256:
00D8 7E00           4469             MOV     R6,#00H
00DA                4470     ?C0257:
00DA EE             4471             MOV     A,R6
00DB 5F             4472             ANL     A,R7
00DC 6002           4473             JZ      ?C0253
00DE D200     F     4474             SETB    FL_21
00E0                4475     ?C0253:
                    4476     ;           if((cmd==2)&(zbuf[6]==0xB4)) {FL_21=1;}//читать adress FLASH
                    4477                             ; SOURCE LINE # 900
00E0 E500     F     4478             MOV     A,zbuf+06H
00E2 B4B404         4479             CJNE    A,#0B4H,?C0259
00E5 7F01           4480             MOV     R7,#01H
00E7 8002           4481             SJMP    ?C0260
00E9                4482     ?C0259:
00E9 7F00           4483             MOV     R7,#00H
00EB                4484     ?C0260:
00EB E500     F     4485             MOV     A,cmd
00ED B40204         4486             CJNE    A,#02H,?C0261
00F0 7E01           4487             MOV     R6,#01H
00F2 8002           4488             SJMP    ?C0262
00F4                4489     ?C0261:
00F4 7E00           4490             MOV     R6,#00H
00F6                4491     ?C0262:
00F6 EE             4492             MOV     A,R6
00F7 5F             4493             ANL     A,R7
00F8 6002           4494             JZ      ?C0258
00FA D200     F     4495             SETB    FL_21
00FC                4496     ?C0258:
                    4497     ;           if((cmd==1)&(zbuf[6]==0xB4)) {FL_21=1;}//писать adress FLASH 
                    4498                             ; SOURCE LINE # 901
00FC E500     F     4499             MOV     A,zbuf+06H
00FE B4B404         4500             CJNE    A,#0B4H,?C0264
0101 7F01           4501             MOV     R7,#01H
0103 8002           4502             SJMP    ?C0265
0105                4503     ?C0264:
0105 7F00           4504             MOV     R7,#00H
0107                4505     ?C0265:
0107 E500     F     4506             MOV     A,cmd
0109 B40104         4507             CJNE    A,#01H,?C0266
010C 7E01           4508             MOV     R6,#01H
010E 8002           4509             SJMP    ?C0267
0110                4510     ?C0266:
0110 7E00           4511             MOV     R6,#00H
0112                4512     ?C0267:
0112 EE             4513             MOV     A,R6
0113 5F             4514             ANL     A,R7
0114 6002           4515             JZ      ?C0263
0116 D200     F     4516             SETB    FL_21
0118                4517     ?C0263:
A51 MACRO ASSEMBLER  MAIN_BKCD                                                            12/02/2009 12:07:33 PAGE    70

                    4518     ;           if((cmd==2)&(zbuf[6]==0xB5)) {FL_21=1;}//читать сlock
                    4519                             ; SOURCE LINE # 902
0118 E500     F     4520             MOV     A,zbuf+06H
011A B4B504         4521             CJNE    A,#0B5H,?C0269
011D 7F01           4522             MOV     R7,#01H
011F 8002           4523             SJMP    ?C0270
0121                4524     ?C0269:
0121 7F00           4525             MOV     R7,#00H
0123                4526     ?C0270:
0123 E500     F     4527             MOV     A,cmd
0125 B40204         4528             CJNE    A,#02H,?C0271
0128 7E01           4529             MOV     R6,#01H
012A 8002           4530             SJMP    ?C0272
012C                4531     ?C0271:
012C 7E00           4532             MOV     R6,#00H
012E                4533     ?C0272:
012E EE             4534             MOV     A,R6
012F 5F             4535             ANL     A,R7
0130 6002           4536             JZ      ?C0268
0132 D200     F     4537             SETB    FL_21
0134                4538     ?C0268:
                    4539     ;           if((cmd==1)&(zbuf[6]==0xB5)) {FL_21=1;}//писать clock 
                    4540                             ; SOURCE LINE # 903
0134 E500     F     4541             MOV     A,zbuf+06H
0136 B4B504         4542             CJNE    A,#0B5H,?C0274
0139 7F01           4543             MOV     R7,#01H
013B 8002           4544             SJMP    ?C0275
013D                4545     ?C0274:
013D 7F00           4546             MOV     R7,#00H
013F                4547     ?C0275:
013F E500     F     4548             MOV     A,cmd
0141 B40104         4549             CJNE    A,#01H,?C0276
0144 7E01           4550             MOV     R6,#01H
0146 8002           4551             SJMP    ?C0277
0148                4552     ?C0276:
0148 7E00           4553             MOV     R6,#00H
014A                4554     ?C0277:
014A EE             4555             MOV     A,R6
014B 5F             4556             ANL     A,R7
014C 6002           4557             JZ      ?C0273
014E D200     F     4558             SETB    FL_21
0150                4559     ?C0273:
                    4560     ;           if((cmd==2)&(zbuf[6]==0xB6)) {FL_21=1;}//читать P0,P2
                    4561                             ; SOURCE LINE # 904
0150 E500     F     4562             MOV     A,zbuf+06H
0152 B4B604         4563             CJNE    A,#0B6H,?C0279
0155 7F01           4564             MOV     R7,#01H
0157 8002           4565             SJMP    ?C0280
0159                4566     ?C0279:
0159 7F00           4567             MOV     R7,#00H
015B                4568     ?C0280:
015B E500     F     4569             MOV     A,cmd
015D B40204         4570             CJNE    A,#02H,?C0281
0160 7E01           4571             MOV     R6,#01H
0162 8002           4572             SJMP    ?C0282
0164                4573     ?C0281:
0164 7E00           4574             MOV     R6,#00H
0166                4575     ?C0282:
0166 EE             4576             MOV     A,R6
0167 5F             4577             ANL     A,R7
0168 6002           4578             JZ      ?C0278
016A D200     F     4579             SETB    FL_21
016C                4580     ?C0278:
                    4581     ;           if((cmd==1)&(zbuf[6]==0xB6)) {FL_21=1;}//писать P0,P2
                    4582                             ; SOURCE LINE # 905
016C E500     F     4583             MOV     A,zbuf+06H
A51 MACRO ASSEMBLER  MAIN_BKCD                                                            12/02/2009 12:07:33 PAGE    71

016E B4B604         4584             CJNE    A,#0B6H,?C0284
0171 7F01           4585             MOV     R7,#01H
0173 8002           4586             SJMP    ?C0285
0175                4587     ?C0284:
0175 7F00           4588             MOV     R7,#00H
0177                4589     ?C0285:
0177 E500     F     4590             MOV     A,cmd
0179 B40104         4591             CJNE    A,#01H,?C0286
017C 7E01           4592             MOV     R6,#01H
017E 8002           4593             SJMP    ?C0287
0180                4594     ?C0286:
0180 7E00           4595             MOV     R6,#00H
0182                4596     ?C0287:
0182 EE             4597             MOV     A,R6
0183 5F             4598             ANL     A,R7
0184 6002           4599             JZ      ?C0283
0186 D200     F     4600             SETB    FL_21
0188                4601     ?C0283:
                    4602     ;           if((cmd==2)&(zbuf[6]==0xBA)) {FL_21=1;}//читать EEPROM
                    4603                             ; SOURCE LINE # 906
0188 E500     F     4604             MOV     A,zbuf+06H
018A B4BA04         4605             CJNE    A,#0BAH,?C0289
018D 7F01           4606             MOV     R7,#01H
018F 8002           4607             SJMP    ?C0290
0191                4608     ?C0289:
0191 7F00           4609             MOV     R7,#00H
0193                4610     ?C0290:
0193 E500     F     4611             MOV     A,cmd
0195 B40204         4612             CJNE    A,#02H,?C0291
0198 7E01           4613             MOV     R6,#01H
019A 8002           4614             SJMP    ?C0292
019C                4615     ?C0291:
019C 7E00           4616             MOV     R6,#00H
019E                4617     ?C0292:
019E EE             4618             MOV     A,R6
019F 5F             4619             ANL     A,R7
01A0 6002           4620             JZ      ?C0288
01A2 D200     F     4621             SETB    FL_21
01A4                4622     ?C0288:
                    4623     ;           if((cmd==1)&(zbuf[6]==0xBA)) {FL_21=1;}//писать EEPROM 
                    4624                             ; SOURCE LINE # 907
01A4 E500     F     4625             MOV     A,zbuf+06H
01A6 B4BA04         4626             CJNE    A,#0BAH,?C0294
01A9 7F01           4627             MOV     R7,#01H
01AB 8002           4628             SJMP    ?C0295
01AD                4629     ?C0294:
01AD 7F00           4630             MOV     R7,#00H
01AF                4631     ?C0295:
01AF E500     F     4632             MOV     A,cmd
01B1 B40104         4633             CJNE    A,#01H,?C0296
01B4 7E01           4634             MOV     R6,#01H
01B6 8002           4635             SJMP    ?C0297
01B8                4636     ?C0296:
01B8 7E00           4637             MOV     R6,#00H
01BA                4638     ?C0297:
01BA EE             4639             MOV     A,R6
01BB 5F             4640             ANL     A,R7
01BC 6007           4641             JZ      ?C0298
01BE D200     F     4642             SETB    FL_21
                    4643     ;           
                    4644     ;        }
                    4645                             ; SOURCE LINE # 909
01C0 8003           4646             SJMP    ?C0298
01C2                4647     ?C0233:
                    4648     ; 
                    4649     ;       else {len=len1; 
A51 MACRO ASSEMBLER  MAIN_BKCD                                                            12/02/2009 12:07:33 PAGE    72

                    4650                             ; SOURCE LINE # 911
01C2 850000   F     4651             MOV     len,len1
                    4652     ;          }  
                    4653                             ; SOURCE LINE # 912
01C5                4654     ?C0298:
                    4655     ;      
                    4656     ;       FL_20=0;
                    4657                             ; SOURCE LINE # 914
01C5 C200     F     4658             CLR     FL_20
                    4659     ;     }
                    4660                             ; SOURCE LINE # 915
01C7                4661     ?C0232:
                    4662     ; 
                    4663     ;       if (FL_21==1)
                    4664                             ; SOURCE LINE # 917
01C7 200003   F     4665             JB      FL_21,$ + 6H
01CA 020000   F     4666             LJMP    ?C0299
                    4667     ;       {
                    4668                             ; SOURCE LINE # 918
                    4669     ;                       FL_21=0;
                    4670                             ; SOURCE LINE # 919
01CD C200     F     4671             CLR     FL_21
                    4672     ;                       // начало по флагу 21 аналог адц 20
                    4673     ;  
                    4674     ; /////////////////////////............
                    4675     ;            if((adcins[0]&0x3F)==0x33) //  FLASH
                    4676                             ; SOURCE LINE # 923
01CF 7800     F     4677             MOV     R0,#LOW (adcins)
01D1 E6             4678             MOV     A,@R0
01D2 543F           4679             ANL     A,#03FH
01D4 6433           4680             XRL     A,#033H
01D6 6003           4681             JZ      $ + 5H
01D8 020000   F     4682             LJMP    ?C0300
                    4683     ;            {                           
                    4684                             ; SOURCE LINE # 924
                    4685     ;                   if(cmd==1)
                    4686                             ; SOURCE LINE # 925
01DB E500     F     4687             MOV     A,cmd
01DD 6401           4688             XRL     A,#01H
01DF 7059           4689             JNZ     ?C0301
                    4690     ;                          {
                    4691                             ; SOURCE LINE # 926
                    4692     ;                       FUM_Wr_Flash_Str(j) //макрос
                    4693                             ; SOURCE LINE # 927
01E1 53A0BF         4694             ANL     P2,#0BFH
01E4 E500     F     4695             MOV     A,zbuf+09H
01E6 25E0           4696             ADD     A,ACC
01E8 7800     F     4697             MOV     R0,#LOW (adcbuf+01H)
01EA F6             4698             MOV     @R0,A
01EB E500     F     4699             MOV     A,zbuf+0AH
01ED 25E0           4700             ADD     A,ACC
01EF 08             4701             INC     R0
01F0 F6             4702             MOV     @R0,A
01F1 E500     F     4703             MOV     A,zbuf+0AH
01F3 30E705         4704             JNB     ACC.7,?C0302
01F6 18             4705             DEC     R0
01F7 E6             4706             MOV     A,@R0
01F8 4401           4707             ORL     A,#01H
01FA F6             4708             MOV     @R0,A
01FB                4709     ?C0302:
01FB E4             4710             CLR     A
01FC 7800     F     4711             MOV     R0,#LOW (j)
01FE F6             4712             MOV     @R0,A
01FF                4713     ?C0303:
01FF 7800     F     4714             MOV     R0,#LOW (j)
0201 E6             4715             MOV     A,@R0
A51 MACRO ASSEMBLER  MAIN_BKCD                                                            12/02/2009 12:07:33 PAGE    73

0202 FF             4716             MOV     R7,A
0203 C3             4717             CLR     C
0204 9404           4718             SUBB    A,#04H
0206 5011           4719             JNC     ?C0304
0208 7400     F     4720             MOV     A,#LOW (adcbuf)
020A 2F             4721             ADD     A,R7
020B F8             4722             MOV     R0,A
020C E6             4723             MOV     A,@R0
020D F5F7           4724             MOV     SPIDAT,A
020F                4725     ?C0306:
020F 30FFFD         4726             JNB     ISPI,?C0306
0212                4727     ?C0307:
0212 C2FF           4728             CLR     ISPI
0214 7800     F     4729             MOV     R0,#LOW (j)
0216 06             4730             INC     @R0
0217 80E6           4731             SJMP    ?C0303
0219                4732     ?C0304:
0219 E4             4733             CLR     A
021A 7800     F     4734             MOV     R0,#LOW (j)
021C F6             4735             MOV     @R0,A
021D                4736     ?C0308:
021D 7800     F     4737             MOV     R0,#LOW (j)
021F E6             4738             MOV     A,@R0
0220 FF             4739             MOV     R7,A
0221 C3             4740             CLR     C
0222 9409           4741             SUBB    A,#09H
0224 5011           4742             JNC     ?C0309
0226 7400     F     4743             MOV     A,#LOW (zbuf+0EH)
0228 2F             4744             ADD     A,R7
0229 F8             4745             MOV     R0,A
022A E6             4746             MOV     A,@R0
022B F5F7           4747             MOV     SPIDAT,A
022D                4748     ?C0311:
022D 30FFFD         4749             JNB     ISPI,?C0311
0230                4750     ?C0312:
0230 C2FF           4751             CLR     ISPI
0232 7800     F     4752             MOV     R0,#LOW (j)
0234 06             4753             INC     @R0
0235 80E6           4754             SJMP    ?C0308
0237                4755     ?C0309:
0237 43A040         4756             ORL     P2,#040H
                    4757     ;                           }
                    4758                             ; SOURCE LINE # 928
023A                4759     ?C0301:
                    4760     ;                       if(cmd==2) 
                    4761                             ; SOURCE LINE # 929
023A E500     F     4762             MOV     A,cmd
023C 6402           4763             XRL     A,#02H
023E 6003           4764             JZ      $ + 5H
0240 020000   F     4765             LJMP    ?C0300
                    4766     ;                           {
                    4767                             ; SOURCE LINE # 930
                    4768     ;                               FUM_Rd_Flash_Str(j) //макрос
                    4769                             ; SOURCE LINE # 931
0243 E500     F     4770             MOV     A,zbuf+09H
0245 25E0           4771             ADD     A,ACC
0247 7800     F     4772             MOV     R0,#LOW (adcbuf+01H)
0249 F6             4773             MOV     @R0,A
024A E500     F     4774             MOV     A,zbuf+0AH
024C 25E0           4775             ADD     A,ACC
024E 08             4776             INC     R0
024F F6             4777             MOV     @R0,A
0250 E500     F     4778             MOV     A,zbuf+0AH
0252 30E705         4779             JNB     ACC.7,?C0314
0255 18             4780             DEC     R0
0256 E6             4781             MOV     A,@R0
A51 MACRO ASSEMBLER  MAIN_BKCD                                                            12/02/2009 12:07:33 PAGE    74

0257 4401           4782             ORL     A,#01H
0259 F6             4783             MOV     @R0,A
025A                4784     ?C0314:
025A 7800     F     4785             MOV     R0,#LOW (adcbuf+02H)
025C E6             4786             MOV     A,@R0
025D 54FC           4787             ANL     A,#0FCH
025F F6             4788             MOV     @R0,A
0260 E500     F     4789             MOV     A,zbuf+0AH
0262 30E004         4790             JNB     ACC.0,?C0315
0265 E6             4791             MOV     A,@R0
0266 4401           4792             ORL     A,#01H
0268 F6             4793             MOV     @R0,A
0269                4794     ?C0315:
0269 53A0BF         4795             ANL     P2,#0BFH
026C E500     F     4796             MOV     A,zbuf+08H
026E B4521E         4797             CJNE    A,#052H,?C0316
0271 E4             4798             CLR     A
0272 7800     F     4799             MOV     R0,#LOW (j)
0274 F6             4800             MOV     @R0,A
0275                4801     ?C0317:
0275 7800     F     4802             MOV     R0,#LOW (j)
0277 E6             4803             MOV     A,@R0
0278 FF             4804             MOV     R7,A
0279 C3             4805             CLR     C
027A 9409           4806             SUBB    A,#09H
027C 502F           4807             JNC     ?C0322
027E 7400     F     4808             MOV     A,#LOW (adcbuf)
0280 2F             4809             ADD     A,R7
0281 F8             4810             MOV     R0,A
0282 E6             4811             MOV     A,@R0
0283 F5F7           4812             MOV     SPIDAT,A
0285                4813     ?C0320:
0285 30FFFD         4814             JNB     ISPI,?C0320
0288                4815     ?C0321:
0288 C2FF           4816             CLR     ISPI
028A 7800     F     4817             MOV     R0,#LOW (j)
028C 06             4818             INC     @R0
028D 80E6           4819             SJMP    ?C0317
028F                4820     ?C0316:
028F E4             4821             CLR     A
0290 7800     F     4822             MOV     R0,#LOW (j)
0292 F6             4823             MOV     @R0,A
0293                4824     ?C0323:
0293 7800     F     4825             MOV     R0,#LOW (j)
0295 E6             4826             MOV     A,@R0
0296 FF             4827             MOV     R7,A
0297 C3             4828             CLR     C
0298 9406           4829             SUBB    A,#06H
029A 5011           4830             JNC     ?C0322
029C 7400     F     4831             MOV     A,#LOW (adcbuf)
029E 2F             4832             ADD     A,R7
029F F8             4833             MOV     R0,A
02A0 E6             4834             MOV     A,@R0
02A1 F5F7           4835             MOV     SPIDAT,A
02A3                4836     ?C0326:
02A3 30FFFD         4837             JNB     ISPI,?C0326
02A6                4838     ?C0327:
02A6 C2FF           4839             CLR     ISPI
02A8 7800     F     4840             MOV     R0,#LOW (j)
02AA 06             4841             INC     @R0
02AB 80E6           4842             SJMP    ?C0323
02AD                4843     ?C0322:
02AD E4             4844             CLR     A
02AE 7800     F     4845             MOV     R0,#LOW (j)
02B0 F6             4846             MOV     @R0,A
02B1                4847     ?C0328:
A51 MACRO ASSEMBLER  MAIN_BKCD                                                            12/02/2009 12:07:33 PAGE    75

02B1 7800     F     4848             MOV     R0,#LOW (j)
02B3 E6             4849             MOV     A,@R0
02B4 FF             4850             MOV     R7,A
02B5 C3             4851             CLR     C
02B6 9409           4852             SUBB    A,#09H
02B8 501E           4853             JNC     ?C0329
02BA 744E           4854             MOV     A,#LOW (bufout+0EH)
02BC 2F             4855             ADD     A,R7
02BD F582           4856             MOV     DPL,A
02BF E4             4857             CLR     A
02C0 3400           4858             ADDC    A,#HIGH (bufout+0EH)
02C2 F583           4859             MOV     DPH,A
02C4 E5F7           4860             MOV     A,SPIDAT
02C6 F0             4861             MOVX    @DPTR,A
02C7 7400     F     4862             MOV     A,#LOW (zbuf+0EH)
02C9 2F             4863             ADD     A,R7
02CA F8             4864             MOV     R0,A
02CB E6             4865             MOV     A,@R0
02CC F5F7           4866             MOV     SPIDAT,A
02CE                4867     ?C0331:
02CE 30FFFD         4868             JNB     ISPI,?C0331
02D1                4869     ?C0332:
02D1 C2FF           4870             CLR     ISPI
02D3 7800     F     4871             MOV     R0,#LOW (j)
02D5 06             4872             INC     @R0
02D6 80D9           4873             SJMP    ?C0328
02D8                4874     ?C0329:
02D8 43A040         4875             ORL     P2,#040H
02DB E4             4876             CLR     A
02DC 7800     F     4877             MOV     R0,#LOW (j)
02DE F6             4878             MOV     @R0,A
02DF                4879     ?C0333:
02DF 7800     F     4880             MOV     R0,#LOW (j)
02E1 E6             4881             MOV     A,@R0
02E2 FF             4882             MOV     R7,A
02E3 2400     F     4883             ADD     A,#LOW (zbuf+06H)
02E5 F8             4884             MOV     R0,A
02E6 E6             4885             MOV     A,@R0
02E7 FE             4886             MOV     R6,A
02E8 7446           4887             MOV     A,#LOW (bufout+06H)
02EA 2F             4888             ADD     A,R7
02EB F582           4889             MOV     DPL,A
02ED E4             4890             CLR     A
02EE 3400           4891             ADDC    A,#HIGH (bufout+06H)
02F0 F583           4892             MOV     DPH,A
02F2 EE             4893             MOV     A,R6
02F3 F0             4894             MOVX    @DPTR,A
02F4 7800     F     4895             MOV     R0,#LOW (j)
02F6 06             4896             INC     @R0
02F7 E6             4897             MOV     A,@R0
02F8 B408E4         4898             CJNE    A,#08H,?C0333
02FB                4899     ?C0334:
02FB 750016   F     4900             MOV     len,#016H
                    4901     ;                            }
                    4902                             ; SOURCE LINE # 932
                    4903     ;            }
                    4904                             ; SOURCE LINE # 933
02FE                4905     ?C0300:
                    4906     ;       
                    4907     ;              if((adcins[0]&0x3F)==0x34) // adress FLASH
                    4908                             ; SOURCE LINE # 935
02FE 7800     F     4909             MOV     R0,#LOW (adcins)
0300 E6             4910             MOV     A,@R0
0301 543F           4911             ANL     A,#03FH
0303 FC             4912             MOV     R4,A
0304 6434           4913             XRL     A,#034H
A51 MACRO ASSEMBLER  MAIN_BKCD                                                            12/02/2009 12:07:33 PAGE    76

0306 705A           4914             JNZ     ?C0336
                    4915     ;            {                           
                    4916                             ; SOURCE LINE # 936
                    4917     ;                       if(cmd==1)
                    4918                             ; SOURCE LINE # 937
0308 E500     F     4919             MOV     A,cmd
030A B4011F         4920             CJNE    A,#01H,?C0337
                    4921     ;                               {
                    4922                             ; SOURCE LINE # 938
                    4923     ;                                FUM_WrAdr_Flash_Str() //макрос
                    4924                             ; SOURCE LINE # 939
030D E500     F     4925             MOV     A,zbuf+08H
030F 25E0           4926             ADD     A,ACC
0311 900000   F     4927             MOV     DPTR,#PA_H
0314 F0             4928             MOVX    @DPTR,A
0315 E500     F     4929             MOV     A,zbuf+09H
0317 25E0           4930             ADD     A,ACC
0319 A3             4931             INC     DPTR
031A F0             4932             MOVX    @DPTR,A
031B E500     F     4933             MOV     A,zbuf+09H
031D 30E706         4934             JNB     ACC.7,?C0338
0320 900000   F     4935             MOV     DPTR,#PA_H
0323 E0             4936             MOVX    A,@DPTR
0324 04             4937             INC     A
0325 F0             4938             MOVX    @DPTR,A
0326                4939     ?C0338:
0326 900000   F     4940             MOV     DPTR,#ADR_BF
0329 E500     F     4941             MOV     A,zbuf+0AH
032B F0             4942             MOVX    @DPTR,A
                    4943     ;                        }
                    4944                             ; SOURCE LINE # 940
032C                4945     ?C0337:
                    4946     ;                       if(cmd==2)
                    4947                             ; SOURCE LINE # 941
032C E500     F     4948             MOV     A,cmd
032E 6402           4949             XRL     A,#02H
0330 7030           4950             JNZ     ?C0336
                    4951     ;                       {
                    4952                             ; SOURCE LINE # 942
                    4953     ;               FUM_RdAdr_Flash_Str() //макрос
                    4954                             ; SOURCE LINE # 943
0332 900000   F     4955             MOV     DPTR,#PA_H
0335 E0             4956             MOVX    A,@DPTR
0336 FE             4957             MOV     R6,A
0337 C3             4958             CLR     C
0338 13             4959             RRC     A
0339 900048         4960             MOV     DPTR,#bufout+08H
033C F0             4961             MOVX    @DPTR,A
033D 900000   F     4962             MOV     DPTR,#PA_L
0340 E0             4963             MOVX    A,@DPTR
0341 C3             4964             CLR     C
0342 13             4965             RRC     A
0343 900049         4966             MOV     DPTR,#bufout+09H
0346 F0             4967             MOVX    @DPTR,A
0347 EE             4968             MOV     A,R6
0348 30E004         4969             JNB     ACC.0,?C0340
034B E0             4970             MOVX    A,@DPTR
034C 4480           4971             ORL     A,#080H
034E F0             4972             MOVX    @DPTR,A
034F                4973     ?C0340:
034F 900000   F     4974             MOV     DPTR,#ADR_BF
0352 E0             4975             MOVX    A,@DPTR
0353 90004A         4976             MOV     DPTR,#bufout+0AH
0356 F0             4977             MOVX    @DPTR,A
0357 900000   F     4978             MOV     DPTR,#K_PAH
035A E0             4979             MOVX    A,@DPTR
A51 MACRO ASSEMBLER  MAIN_BKCD                                                            12/02/2009 12:07:33 PAGE    77

035B 90004B         4980             MOV     DPTR,#bufout+0BH
035E F0             4981             MOVX    @DPTR,A
035F 75000C   F     4982             MOV     len,#0CH
                    4983     ;                   }
                    4984                             ; SOURCE LINE # 944
                    4985     ;                  } 
                    4986                             ; SOURCE LINE # 945
0362                4987     ?C0336:
                    4988     ;                  
                    4989     ;               
                    4990     ;            if((adcins[0]&0x3F)==0x35) // R/W CLOCK
                    4991                             ; SOURCE LINE # 948
0362 EC             4992             MOV     A,R4
0363 6435           4993             XRL     A,#035H
0365 6003           4994             JZ      $ + 5H
0367 020000   F     4995             LJMP    ?C0341
                    4996     ;            {                           
                    4997                             ; SOURCE LINE # 949
                    4998     ;                       if (cmd == 1)                   //wr/ rd 
                    4999                             ; SOURCE LINE # 950
036A E500     F     5000             MOV     A,cmd
036C 6401           5001             XRL     A,#01H
036E 6003           5002             JZ      $ + 5H
0370 020000   F     5003             LJMP    ?C0342
                    5004     ;                       {
                    5005                             ; SOURCE LINE # 951
                    5006     ;                       len = zbuf[5]&0x1F;
                    5007                             ; SOURCE LINE # 952
0373 E500     F     5008             MOV     A,zbuf+05H
0375 541F           5009             ANL     A,#01FH
0377 F500     F     5010             MOV     len,A
                    5011     ;                       zbuf[7]=0xD0; 
                    5012                             ; SOURCE LINE # 953
0379 7500D0   F     5013             MOV     zbuf+07H,#0D0H
                    5014     ;                       MDO=0;//P2=P2&0xF7;//SD старт - L
                    5015                             ; SOURCE LINE # 954
037C C2EF           5016             CLR     MDO
                    5017     ;                               DL=2;while (1){DL--;if(DL==0)break;}
                    5018                             ; SOURCE LINE # 955
037E 900000   F     5019             MOV     DPTR,#DL
0381 7402           5020             MOV     A,#02H
0383 F0             5021             MOVX    @DPTR,A
0384                5022     ?C0343:
0384 900000   F     5023             MOV     DPTR,#DL
0387 E0             5024             MOVX    A,@DPTR
0388 14             5025             DEC     A
0389 F0             5026             MOVX    @DPTR,A
038A E0             5027             MOVX    A,@DPTR
038B 70F7           5028             JNZ     ?C0343
038D                5029     ?C0344:
                    5030     ;                               MCO=0; //P2=P2&0xFE; //SCL - L
                    5031                             ; SOURCE LINE # 956
038D C2ED           5032             CLR     MCO
                    5033     ;                               len=len-1;
                    5034                             ; SOURCE LINE # 957
038F 1500     F     5035             DEC     len
                    5036     ;                               for(j2=0;j2<len;j2++)
                    5037                             ; SOURCE LINE # 958
0391 E4             5038             CLR     A
0392 7800     F     5039             MOV     R0,#LOW (j2)
0394 F6             5040             MOV     @R0,A
0395                5041     ?C0346:
0395 7800     F     5042             MOV     R0,#LOW (j2)
0397 E6             5043             MOV     A,@R0
0398 C3             5044             CLR     C
0399 9500     F     5045             SUBB    A,len
A51 MACRO ASSEMBLER  MAIN_BKCD                                                            12/02/2009 12:07:33 PAGE    78

039B 5073           5046             JNC     ?C0347
                    5047     ;                       {   
                    5048                             ; SOURCE LINE # 959
                    5049     ;                               for(i1=0;i1<8;i1++)
                    5050                             ; SOURCE LINE # 960
039D E4             5051             CLR     A
039E F500     F     5052             MOV     i1,A
03A0                5053     ?C0349:
                    5054     ;                       {
                    5055                             ; SOURCE LINE # 961
                    5056     ;                                       if((zbuf[7+j2]&0x80)==0)
                    5057                             ; SOURCE LINE # 962
03A0 7800     F     5058             MOV     R0,#LOW (j2)
03A2 E6             5059             MOV     A,@R0
03A3 2400     F     5060             ADD     A,#LOW (zbuf+07H)
03A5 F8             5061             MOV     R0,A
03A6 E6             5062             MOV     A,@R0
03A7 20E704         5063             JB      ACC.7,?C0352
                    5064     ;                               {
                    5065                             ; SOURCE LINE # 963
                    5066     ;                                               MDO=0; //P2=P2&0xF7;//SD  - L
                    5067                             ; SOURCE LINE # 964
03AA C2EF           5068             CLR     MDO
                    5069     ;                                       } 
                    5070                             ; SOURCE LINE # 965
03AC 8002           5071             SJMP    ?C0353
03AE                5072     ?C0352:
                    5073     ;                               else 
                    5074     ;                               { 
                    5075                             ; SOURCE LINE # 967
                    5076     ;                                               MDO=1; //P2=P2|0x08;//SD  - H
                    5077                             ; SOURCE LINE # 968
03AE D2EF           5078             SETB    MDO
                    5079     ;                               }
                    5080                             ; SOURCE LINE # 969
03B0                5081     ?C0353:
                    5082     ;                                       DL=2;while (1){DL--;if(DL==0)break;} 
                    5083                             ; SOURCE LINE # 970
03B0 900000   F     5084             MOV     DPTR,#DL
03B3 7402           5085             MOV     A,#02H
03B5 F0             5086             MOVX    @DPTR,A
03B6                5087     ?C0354:
03B6 900000   F     5088             MOV     DPTR,#DL
03B9 E0             5089             MOVX    A,@DPTR
03BA 14             5090             DEC     A
03BB F0             5091             MOVX    @DPTR,A
03BC E0             5092             MOVX    A,@DPTR
03BD 70F7           5093             JNZ     ?C0354
03BF                5094     ?C0355:
                    5095     ;                                       MCO=1; //P2=P2|0x01;//SCL - H
                    5096                             ; SOURCE LINE # 971
03BF D2ED           5097             SETB    MCO
                    5098     ;                                       DL=2;while (1){DL--;if(DL==0)break;}
                    5099                             ; SOURCE LINE # 972
03C1 900000   F     5100             MOV     DPTR,#DL
03C4 7402           5101             MOV     A,#02H
03C6 F0             5102             MOVX    @DPTR,A
03C7                5103     ?C0357:
03C7 900000   F     5104             MOV     DPTR,#DL
03CA E0             5105             MOVX    A,@DPTR
03CB 14             5106             DEC     A
03CC F0             5107             MOVX    @DPTR,A
03CD E0             5108             MOVX    A,@DPTR
03CE 70F7           5109             JNZ     ?C0357
03D0                5110     ?C0358:
                    5111     ;                                       MCO=0; //P2=P2&0xFE; //SCL - L
A51 MACRO ASSEMBLER  MAIN_BKCD                                                            12/02/2009 12:07:33 PAGE    79

                    5112                             ; SOURCE LINE # 973
03D0 C2ED           5113             CLR     MCO
                    5114     ;                               zbuf[7+j2] = zbuf[7+j2]<<1;
                    5115                             ; SOURCE LINE # 974
03D2 7800     F     5116             MOV     R0,#LOW (j2)
03D4 E6             5117             MOV     A,@R0
03D5 2400     F     5118             ADD     A,#LOW (zbuf+07H)
03D7 F8             5119             MOV     R0,A
03D8 C000           5120             PUSH    AR0
03DA E6             5121             MOV     A,@R0
03DB 25E0           5122             ADD     A,ACC
03DD D000           5123             POP     AR0
03DF F6             5124             MOV     @R0,A
                    5125     ;                                       MDO=0; //P2=P2&0xF7;//SD  - L
                    5126                             ; SOURCE LINE # 975
03E0 C2EF           5127             CLR     MDO
                    5128     ;                               } 
                    5129                             ; SOURCE LINE # 976
03E2 0500     F     5130             INC     i1
03E4 E500     F     5131             MOV     A,i1
03E6 B408B7         5132             CJNE    A,#08H,?C0349
03E9                5133     ?C0350:
                    5134     ;                                  
                    5135     ;                               //подтверждение
                    5136     ;                               DL=2;while (1){DL--;if(DL==0)break;}    
                    5137                             ; SOURCE LINE # 979
03E9 900000   F     5138             MOV     DPTR,#DL
03EC 7402           5139             MOV     A,#02H
03EE F0             5140             MOVX    @DPTR,A
03EF                5141     ?C0360:
03EF 900000   F     5142             MOV     DPTR,#DL
03F2 E0             5143             MOVX    A,@DPTR
03F3 14             5144             DEC     A
03F4 F0             5145             MOVX    @DPTR,A
03F5 E0             5146             MOVX    A,@DPTR
03F6 70F7           5147             JNZ     ?C0360
03F8                5148     ?C0361:
                    5149     ;                               MCO=1; //P2=P2|0x01;//SCL - H
                    5150                             ; SOURCE LINE # 980
03F8 D2ED           5151             SETB    MCO
                    5152     ;                               DL=2;while (1){DL--;if(DL==0)break;}
                    5153                             ; SOURCE LINE # 981
03FA 900000   F     5154             MOV     DPTR,#DL
03FD 7402           5155             MOV     A,#02H
03FF F0             5156             MOVX    @DPTR,A
0400                5157     ?C0363:
0400 900000   F     5158             MOV     DPTR,#DL
0403 E0             5159             MOVX    A,@DPTR
0404 14             5160             DEC     A
0405 F0             5161             MOVX    @DPTR,A
0406 E0             5162             MOVX    A,@DPTR
0407 70F7           5163             JNZ     ?C0363
0409                5164     ?C0364:
                    5165     ;                               MCO=0; //P2=P2&0xFE; //SCL - L
                    5166                             ; SOURCE LINE # 982
0409 C2ED           5167             CLR     MCO
                    5168     ;                       } 
                    5169                             ; SOURCE LINE # 983
040B 7800     F     5170             MOV     R0,#LOW (j2)
040D 06             5171             INC     @R0
040E 8085           5172             SJMP    ?C0346
0410                5173     ?C0347:
                    5174     ;                     //Stop
                    5175     ;                       DL=2;while (1){DL--;if(DL==0)break;} 
                    5176                             ; SOURCE LINE # 985
0410 900000   F     5177             MOV     DPTR,#DL
A51 MACRO ASSEMBLER  MAIN_BKCD                                                            12/02/2009 12:07:33 PAGE    80

0413 7402           5178             MOV     A,#02H
0415 F0             5179             MOVX    @DPTR,A
0416                5180     ?C0366:
0416 900000   F     5181             MOV     DPTR,#DL
0419 E0             5182             MOVX    A,@DPTR
041A 14             5183             DEC     A
041B F0             5184             MOVX    @DPTR,A
041C E0             5185             MOVX    A,@DPTR
041D 70F7           5186             JNZ     ?C0366
041F                5187     ?C0367:
                    5188     ;                       MCO=1; // P2=P2|0x01;//SCL - H
                    5189                             ; SOURCE LINE # 986
041F D2ED           5190             SETB    MCO
                    5191     ;                       DL=2;while (1){DL--;if(DL==0)break;}
                    5192                             ; SOURCE LINE # 987
0421 900000   F     5193             MOV     DPTR,#DL
0424 7402           5194             MOV     A,#02H
0426 F0             5195             MOVX    @DPTR,A
0427                5196     ?C0369:
0427 900000   F     5197             MOV     DPTR,#DL
042A E0             5198             MOVX    A,@DPTR
042B 14             5199             DEC     A
042C F0             5200             MOVX    @DPTR,A
042D E0             5201             MOVX    A,@DPTR
042E 70F7           5202             JNZ     ?C0369
0430                5203     ?C0370:
                    5204     ;                       MDO=1; //P2=P2|0x08;//SD - H
                    5205                             ; SOURCE LINE # 988
0430 D2EF           5206             SETB    MDO
                    5207     ;                            // TR1 = 1;  
                    5208     ;               }
                    5209                             ; SOURCE LINE # 990
0432                5210     ?C0342:
                    5211     ;    
                    5212     ;                               if (cmd == 2)                   //wr/ rd 
                    5213                             ; SOURCE LINE # 992
0432 E500     F     5214             MOV     A,cmd
0434 6402           5215             XRL     A,#02H
0436 6003           5216             JZ      $ + 5H
0438 020000   F     5217             LJMP    ?C0341
                    5218     ;                               {
                    5219                             ; SOURCE LINE # 993
                    5220     ;                                       IND_TAB++;
                    5221                             ; SOURCE LINE # 994
043B 0500     F     5222             INC     IND_TAB
                    5223     ;                                       if(IND_TAB==13) {IND_TAB=0; } 
                    5224                             ; SOURCE LINE # 995
043D E500     F     5225             MOV     A,IND_TAB
043F B40D03         5226             CJNE    A,#0DH,?C0373
0442 E4             5227             CLR     A
0443 F500     F     5228             MOV     IND_TAB,A
0445                5229     ?C0373:
                    5230     ;                                       FUM_RD_CLOCK 
                    5231                             ; SOURCE LINE # 996
0445 7500D0   F     5232             MOV     zbuf+07H,#0D0H
0448 C2EF           5233             CLR     MDO
044A 900000   F     5234             MOV     DPTR,#DL
044D 7402           5235             MOV     A,#02H
044F F0             5236             MOVX    @DPTR,A
0450                5237     ?C0374:
0450 900000   F     5238             MOV     DPTR,#DL
0453 E0             5239             MOVX    A,@DPTR
0454 14             5240             DEC     A
0455 F0             5241             MOVX    @DPTR,A
0456 E0             5242             MOVX    A,@DPTR
0457 70F7           5243             JNZ     ?C0374
A51 MACRO ASSEMBLER  MAIN_BKCD                                                            12/02/2009 12:07:33 PAGE    81

0459                5244     ?C0375:
0459 C2ED           5245             CLR     MCO
045B E4             5246             CLR     A
045C 7800     F     5247             MOV     R0,#LOW (j2)
045E F6             5248             MOV     @R0,A
045F                5249     ?C0377:
045F E4             5250             CLR     A
0460 F500     F     5251             MOV     i1,A
0462                5252     ?C0380:
0462 E500     F     5253             MOV     A,zbuf+07H
0464 20E704         5254             JB      ACC.7,?C0383
0467 C2EF           5255             CLR     MDO
0469 8002           5256             SJMP    ?C0384
046B                5257     ?C0383:
046B D2EF           5258             SETB    MDO
046D                5259     ?C0384:
046D 900000   F     5260             MOV     DPTR,#DL
0470 7402           5261             MOV     A,#02H
0472 F0             5262             MOVX    @DPTR,A
0473                5263     ?C0385:
0473 900000   F     5264             MOV     DPTR,#DL
0476 E0             5265             MOVX    A,@DPTR
0477 14             5266             DEC     A
0478 F0             5267             MOVX    @DPTR,A
0479 E0             5268             MOVX    A,@DPTR
047A 70F7           5269             JNZ     ?C0385
047C                5270     ?C0386:
047C D2ED           5271             SETB    MCO
047E 900000   F     5272             MOV     DPTR,#DL
0481 7402           5273             MOV     A,#02H
0483 F0             5274             MOVX    @DPTR,A
0484                5275     ?C0388:
0484 900000   F     5276             MOV     DPTR,#DL
0487 E0             5277             MOVX    A,@DPTR
0488 14             5278             DEC     A
0489 F0             5279             MOVX    @DPTR,A
048A E0             5280             MOVX    A,@DPTR
048B 70F7           5281             JNZ     ?C0388
048D                5282     ?C0389:
048D C2ED           5283             CLR     MCO
048F C2EF           5284             CLR     MDO
0491 E500     F     5285             MOV     A,zbuf+07H
0493 25E0           5286             ADD     A,ACC
0495 F500     F     5287             MOV     zbuf+07H,A
0497 0500     F     5288             INC     i1
0499 E500     F     5289             MOV     A,i1
049B B408C4         5290             CJNE    A,#08H,?C0380
049E                5291     ?C0381:
049E 900000   F     5292             MOV     DPTR,#DL
04A1 7402           5293             MOV     A,#02H
04A3 F0             5294             MOVX    @DPTR,A
04A4                5295     ?C0391:
04A4 900000   F     5296             MOV     DPTR,#DL
04A7 E0             5297             MOVX    A,@DPTR
04A8 14             5298             DEC     A
04A9 F0             5299             MOVX    @DPTR,A
04AA E0             5300             MOVX    A,@DPTR
04AB 70F7           5301             JNZ     ?C0391
04AD                5302     ?C0392:
04AD D2ED           5303             SETB    MCO
04AF 900000   F     5304             MOV     DPTR,#DL
04B2 7402           5305             MOV     A,#02H
04B4 F0             5306             MOVX    @DPTR,A
04B5                5307     ?C0394:
04B5 900000   F     5308             MOV     DPTR,#DL
04B8 E0             5309             MOVX    A,@DPTR
A51 MACRO ASSEMBLER  MAIN_BKCD                                                            12/02/2009 12:07:33 PAGE    82

04B9 14             5310             DEC     A
04BA F0             5311             MOVX    @DPTR,A
04BB E0             5312             MOVX    A,@DPTR
04BC 70F7           5313             JNZ     ?C0394
04BE                5314     ?C0395:
04BE C2ED           5315             CLR     MCO
04C0 850000   F     5316             MOV     zbuf+07H,zbuf+08H
04C3 7800     F     5317             MOV     R0,#LOW (j2)
04C5 06             5318             INC     @R0
04C6 E6             5319             MOV     A,@R0
04C7 6402           5320             XRL     A,#02H
04C9 7094           5321             JNZ     ?C0377
04CB                5322     ?C0378:
04CB 900000   F     5323             MOV     DPTR,#DL
04CE 7402           5324             MOV     A,#02H
04D0 F0             5325             MOVX    @DPTR,A
04D1                5326     ?C0397:
04D1 900000   F     5327             MOV     DPTR,#DL
04D4 E0             5328             MOVX    A,@DPTR
04D5 14             5329             DEC     A
04D6 F0             5330             MOVX    @DPTR,A
04D7 E0             5331             MOVX    A,@DPTR
04D8 70F7           5332             JNZ     ?C0397
04DA                5333     ?C0398:
04DA D2ED           5334             SETB    MCO
04DC 900000   F     5335             MOV     DPTR,#DL
04DF 7402           5336             MOV     A,#02H
04E1 F0             5337             MOVX    @DPTR,A
04E2                5338     ?C0400:
04E2 900000   F     5339             MOV     DPTR,#DL
04E5 E0             5340             MOVX    A,@DPTR
04E6 14             5341             DEC     A
04E7 F0             5342             MOVX    @DPTR,A
04E8 E0             5343             MOVX    A,@DPTR
04E9 70F7           5344             JNZ     ?C0400
04EB                5345     ?C0401:
04EB D2EF           5346             SETB    MDO
04ED 900000   F     5347             MOV     DPTR,#DL
04F0 7402           5348             MOV     A,#02H
04F2 F0             5349             MOVX    @DPTR,A
04F3                5350     ?C0403:
04F3 900000   F     5351             MOV     DPTR,#DL
04F6 E0             5352             MOVX    A,@DPTR
04F7 14             5353             DEC     A
04F8 F0             5354             MOVX    @DPTR,A
04F9 E0             5355             MOVX    A,@DPTR
04FA 70F7           5356             JNZ     ?C0403
04FC                5357     ?C0404:
04FC 7500D1   F     5358             MOV     zbuf+07H,#0D1H
04FF 900000   F     5359             MOV     DPTR,#DL
0502 7402           5360             MOV     A,#02H
0504 F0             5361             MOVX    @DPTR,A
0505                5362     ?C0406:
0505 900000   F     5363             MOV     DPTR,#DL
0508 E0             5364             MOVX    A,@DPTR
0509 14             5365             DEC     A
050A F0             5366             MOVX    @DPTR,A
050B E0             5367             MOVX    A,@DPTR
050C 70F7           5368             JNZ     ?C0406
050E                5369     ?C0407:
050E C2EF           5370             CLR     MDO
0510 900000   F     5371             MOV     DPTR,#DL
0513 7402           5372             MOV     A,#02H
0515 F0             5373             MOVX    @DPTR,A
0516                5374     ?C0409:
0516 900000   F     5375             MOV     DPTR,#DL
A51 MACRO ASSEMBLER  MAIN_BKCD                                                            12/02/2009 12:07:33 PAGE    83

0519 E0             5376             MOVX    A,@DPTR
051A 14             5377             DEC     A
051B F0             5378             MOVX    @DPTR,A
051C E0             5379             MOVX    A,@DPTR
051D 70F7           5380             JNZ     ?C0409
051F                5381     ?C0410:
051F C2ED           5382             CLR     MCO
0521 900000   F     5383             MOV     DPTR,#DL
0524 7402           5384             MOV     A,#02H
0526 F0             5385             MOVX    @DPTR,A
0527                5386     ?C0412:
0527 900000   F     5387             MOV     DPTR,#DL
052A E0             5388             MOVX    A,@DPTR
052B 14             5389             DEC     A
052C F0             5390             MOVX    @DPTR,A
052D E0             5391             MOVX    A,@DPTR
052E 70F7           5392             JNZ     ?C0412
0530                5393     ?C0413:
0530 E4             5394             CLR     A
0531 F500     F     5395             MOV     i1,A
0533                5396     ?C0415:
0533 E500     F     5397             MOV     A,zbuf+07H
0535 20E704         5398             JB      ACC.7,?C0418
0538 C2EF           5399             CLR     MDO
053A 8002           5400             SJMP    ?C0419
053C                5401     ?C0418:
053C D2EF           5402             SETB    MDO
053E                5403     ?C0419:
053E 900000   F     5404             MOV     DPTR,#DL
0541 7402           5405             MOV     A,#02H
0543 F0             5406             MOVX    @DPTR,A
0544                5407     ?C0420:
0544 900000   F     5408             MOV     DPTR,#DL
0547 E0             5409             MOVX    A,@DPTR
0548 14             5410             DEC     A
0549 F0             5411             MOVX    @DPTR,A
054A E0             5412             MOVX    A,@DPTR
054B 70F7           5413             JNZ     ?C0420
054D                5414     ?C0421:
054D D2ED           5415             SETB    MCO
054F 900000   F     5416             MOV     DPTR,#DL
0552 7402           5417             MOV     A,#02H
0554 F0             5418             MOVX    @DPTR,A
0555                5419     ?C0423:
0555 900000   F     5420             MOV     DPTR,#DL
0558 E0             5421             MOVX    A,@DPTR
0559 14             5422             DEC     A
055A F0             5423             MOVX    @DPTR,A
055B E0             5424             MOVX    A,@DPTR
055C 70F7           5425             JNZ     ?C0423
055E                5426     ?C0424:
055E C2ED           5427             CLR     MCO
0560 C2EF           5428             CLR     MDO
0562 E500     F     5429             MOV     A,zbuf+07H
0564 25E0           5430             ADD     A,ACC
0566 F500     F     5431             MOV     zbuf+07H,A
0568 0500     F     5432             INC     i1
056A E500     F     5433             MOV     A,i1
056C B408C4         5434             CJNE    A,#08H,?C0415
056F                5435     ?C0416:
056F 900000   F     5436             MOV     DPTR,#DL
0572 7402           5437             MOV     A,#02H
0574 F0             5438             MOVX    @DPTR,A
0575                5439     ?C0426:
0575 900000   F     5440             MOV     DPTR,#DL
0578 E0             5441             MOVX    A,@DPTR
A51 MACRO ASSEMBLER  MAIN_BKCD                                                            12/02/2009 12:07:33 PAGE    84

0579 14             5442             DEC     A
057A F0             5443             MOVX    @DPTR,A
057B E0             5444             MOVX    A,@DPTR
057C 70F7           5445             JNZ     ?C0426
057E                5446     ?C0427:
057E D2ED           5447             SETB    MCO
0580 900000   F     5448             MOV     DPTR,#DL
0583 7402           5449             MOV     A,#02H
0585 F0             5450             MOVX    @DPTR,A
0586                5451     ?C0429:
0586 900000   F     5452             MOV     DPTR,#DL
0589 E0             5453             MOVX    A,@DPTR
058A 14             5454             DEC     A
058B F0             5455             MOVX    @DPTR,A
058C E0             5456             MOVX    A,@DPTR
058D 70F7           5457             JNZ     ?C0429
058F                5458     ?C0430:
058F C2ED           5459             CLR     MCO
0591 900000   F     5460             MOV     DPTR,#DL
0594 7402           5461             MOV     A,#02H
0596 F0             5462             MOVX    @DPTR,A
0597                5463     ?C0432:
0597 900000   F     5464             MOV     DPTR,#DL
059A E0             5465             MOVX    A,@DPTR
059B 14             5466             DEC     A
059C F0             5467             MOVX    @DPTR,A
059D E0             5468             MOVX    A,@DPTR
059E 70F7           5469             JNZ     ?C0432
05A0                5470     ?C0433:
05A0 750008   F     5471             MOV     len,#08H
05A3 E4             5472             CLR     A
05A4 7800     F     5473             MOV     R0,#LOW (j2)
05A6 F6             5474             MOV     @R0,A
05A7                5475     ?C0435:
05A7 7800     F     5476             MOV     R0,#LOW (j2)
05A9 E6             5477             MOV     A,@R0
05AA C3             5478             CLR     C
05AB 9500     F     5479             SUBB    A,len
05AD 4003           5480             JC      $ + 5H
05AF 020000   F     5481             LJMP    ?C0436
05B2 E4             5482             CLR     A
05B3 F500     F     5483             MOV     i1,A
05B5                5484     ?C0438:
05B5 C2EE           5485             CLR     MDE
05B7 D2ED           5486             SETB    MCO
05B9 D2EF           5487             SETB    MDO
05BB 900000   F     5488             MOV     DPTR,#DL
05BE 7402           5489             MOV     A,#02H
05C0 F0             5490             MOVX    @DPTR,A
05C1                5491     ?C0441:
05C1 900000   F     5492             MOV     DPTR,#DL
05C4 E0             5493             MOVX    A,@DPTR
05C5 14             5494             DEC     A
05C6 F0             5495             MOVX    @DPTR,A
05C7 E0             5496             MOVX    A,@DPTR
05C8 70F7           5497             JNZ     ?C0441
05CA                5498     ?C0442:
05CA 7800     F     5499             MOV     R0,#LOW (j2)
05CC E6             5500             MOV     A,@R0
05CD 20EC0D         5501             JB      MDI,?C0444
05D0 2400     F     5502             ADD     A,#LOW (zbuf+09H)
05D2 F8             5503             MOV     R0,A
05D3 C000           5504             PUSH    AR0
05D5 E6             5505             MOV     A,@R0
05D6 25E0           5506             ADD     A,ACC
05D8 D000           5507             POP     AR0
A51 MACRO ASSEMBLER  MAIN_BKCD                                                            12/02/2009 12:07:33 PAGE    85

05DA F6             5508             MOV     @R0,A
05DB 8014           5509             SJMP    ?C0445
05DD                5510     ?C0444:
05DD FF             5511             MOV     R7,A
05DE 2400     F     5512             ADD     A,#LOW (zbuf+09H)
05E0 F8             5513             MOV     R0,A
05E1 C000           5514             PUSH    AR0
05E3 E6             5515             MOV     A,@R0
05E4 25E0           5516             ADD     A,ACC
05E6 D000           5517             POP     AR0
05E8 F6             5518             MOV     @R0,A
05E9 7400     F     5519             MOV     A,#LOW (zbuf+09H)
05EB 2F             5520             ADD     A,R7
05EC F8             5521             MOV     R0,A
05ED E6             5522             MOV     A,@R0
05EE 4401           5523             ORL     A,#01H
05F0 F6             5524             MOV     @R0,A
05F1                5525     ?C0445:
05F1 D2EE           5526             SETB    MDE
05F3 C2ED           5527             CLR     MCO
05F5 900000   F     5528             MOV     DPTR,#DL
05F8 7402           5529             MOV     A,#02H
05FA F0             5530             MOVX    @DPTR,A
05FB                5531     ?C0446:
05FB 900000   F     5532             MOV     DPTR,#DL
05FE E0             5533             MOVX    A,@DPTR
05FF 14             5534             DEC     A
0600 F0             5535             MOVX    @DPTR,A
0601 E0             5536             MOVX    A,@DPTR
0602 70F7           5537             JNZ     ?C0446
0604                5538     ?C0440:
0604 0500     F     5539             INC     i1
0606 E500     F     5540             MOV     A,i1
0608 B408AA         5541             CJNE    A,#08H,?C0438
060B                5542     ?C0439:
060B 900000   F     5543             MOV     DPTR,#DL
060E 7402           5544             MOV     A,#02H
0610 F0             5545             MOVX    @DPTR,A
0611                5546     ?C0449:
0611 900000   F     5547             MOV     DPTR,#DL
0614 E0             5548             MOVX    A,@DPTR
0615 14             5549             DEC     A
0616 F0             5550             MOVX    @DPTR,A
0617 E0             5551             MOVX    A,@DPTR
0618 70F7           5552             JNZ     ?C0449
061A                5553     ?C0450:
061A C2EF           5554             CLR     MDO
061C E500     F     5555             MOV     A,len
061E 14             5556             DEC     A
061F 7800     F     5557             MOV     R0,#LOW (j2)
0621 66             5558             XRL     A,@R0
0622 7002           5559             JNZ     ?C0452
0624 D2EF           5560             SETB    MDO
0626                5561     ?C0452:
0626 900000   F     5562             MOV     DPTR,#DL
0629 7402           5563             MOV     A,#02H
062B F0             5564             MOVX    @DPTR,A
062C                5565     ?C0453:
062C 900000   F     5566             MOV     DPTR,#DL
062F E0             5567             MOVX    A,@DPTR
0630 14             5568             DEC     A
0631 F0             5569             MOVX    @DPTR,A
0632 E0             5570             MOVX    A,@DPTR
0633 70F7           5571             JNZ     ?C0453
0635                5572     ?C0454:
0635 D2ED           5573             SETB    MCO
A51 MACRO ASSEMBLER  MAIN_BKCD                                                            12/02/2009 12:07:33 PAGE    86

0637 900000   F     5574             MOV     DPTR,#DL
063A 7402           5575             MOV     A,#02H
063C F0             5576             MOVX    @DPTR,A
063D                5577     ?C0456:
063D 900000   F     5578             MOV     DPTR,#DL
0640 E0             5579             MOVX    A,@DPTR
0641 14             5580             DEC     A
0642 F0             5581             MOVX    @DPTR,A
0643 E0             5582             MOVX    A,@DPTR
0644 70F7           5583             JNZ     ?C0456
0646                5584     ?C0457:
0646 C2ED           5585             CLR     MCO
0648 900000   F     5586             MOV     DPTR,#DL
064B 7402           5587             MOV     A,#02H
064D F0             5588             MOVX    @DPTR,A
064E                5589     ?C0459:
064E 900000   F     5590             MOV     DPTR,#DL
0651 E0             5591             MOVX    A,@DPTR
0652 14             5592             DEC     A
0653 F0             5593             MOVX    @DPTR,A
0654 E0             5594             MOVX    A,@DPTR
0655 70F7           5595             JNZ     ?C0459
0657                5596     ?C0437:
0657 7800     F     5597             MOV     R0,#LOW (j2)
0659 06             5598             INC     @R0
065A 020000   F     5599             LJMP    ?C0435
065D                5600     ?C0436:
065D D2EE           5601             SETB    MDE
065F 900000   F     5602             MOV     DPTR,#DL
0662 7402           5603             MOV     A,#02H
0664 F0             5604             MOVX    @DPTR,A
0665                5605     ?C0462:
0665 900000   F     5606             MOV     DPTR,#DL
0668 E0             5607             MOVX    A,@DPTR
0669 14             5608             DEC     A
066A F0             5609             MOVX    @DPTR,A
066B E0             5610             MOVX    A,@DPTR
066C 70F7           5611             JNZ     ?C0462
066E                5612     ?C0463:
066E C2EF           5613             CLR     MDO
0670 900000   F     5614             MOV     DPTR,#DL
0673 7402           5615             MOV     A,#02H
0675 F0             5616             MOVX    @DPTR,A
0676                5617     ?C0465:
0676 900000   F     5618             MOV     DPTR,#DL
0679 E0             5619             MOVX    A,@DPTR
067A 14             5620             DEC     A
067B F0             5621             MOVX    @DPTR,A
067C E0             5622             MOVX    A,@DPTR
067D 70F7           5623             JNZ     ?C0465
067F                5624     ?C0466:
067F D2ED           5625             SETB    MCO
0681 900000   F     5626             MOV     DPTR,#DL
0684 7402           5627             MOV     A,#02H
0686 F0             5628             MOVX    @DPTR,A
0687                5629     ?C0468:
0687 900000   F     5630             MOV     DPTR,#DL
068A E0             5631             MOVX    A,@DPTR
068B 14             5632             DEC     A
068C F0             5633             MOVX    @DPTR,A
068D E0             5634             MOVX    A,@DPTR
068E 70F7           5635             JNZ     ?C0468
0690                5636     ?C0469:
0690 D2EF           5637             SETB    MDO
0692 E500     F     5638             MOV     A,zbuf+09H
0694 C4             5639             SWAP    A
A51 MACRO ASSEMBLER  MAIN_BKCD                                                            12/02/2009 12:07:33 PAGE    87

0695 540F           5640             ANL     A,#0FH
0697 75F00A         5641             MOV     B,#0AH
069A A4             5642             MUL     AB
069B FF             5643             MOV     R7,A
069C E500     F     5644             MOV     A,zbuf+09H
069E 540F           5645             ANL     A,#0FH
06A0 2F             5646             ADD     A,R7
06A1 F500     F     5647             MOV     i1,A
06A3 F5A3           5648             MOV     SEC,A
06A5 850000   F     5649             MOV     zbuf+09H,i1
06A8 E500     F     5650             MOV     A,zbuf+0AH
06AA C4             5651             SWAP    A
06AB 540F           5652             ANL     A,#0FH
06AD 75F00A         5653             MOV     B,#0AH
06B0 A4             5654             MUL     AB
06B1 FF             5655             MOV     R7,A
06B2 E500     F     5656             MOV     A,zbuf+0AH
06B4 540F           5657             ANL     A,#0FH
06B6 2F             5658             ADD     A,R7
06B7 F500     F     5659             MOV     i1,A
06B9 F5A4           5660             MOV     MIN,A
06BB 850000   F     5661             MOV     zbuf+0AH,i1
06BE E500     F     5662             MOV     A,zbuf+0BH
06C0 C4             5663             SWAP    A
06C1 540F           5664             ANL     A,#0FH
06C3 75F00A         5665             MOV     B,#0AH
06C6 A4             5666             MUL     AB
06C7 FF             5667             MOV     R7,A
06C8 E500     F     5668             MOV     A,zbuf+0BH
06CA 540F           5669             ANL     A,#0FH
06CC 2F             5670             ADD     A,R7
06CD F500     F     5671             MOV     i1,A
06CF F5A5           5672             MOV     HOUR,A
06D1 850000   F     5673             MOV     zbuf+0BH,i1
06D4 E500     F     5674             MOV     A,zbuf+0DH
06D6 C4             5675             SWAP    A
06D7 540F           5676             ANL     A,#0FH
06D9 75F00A         5677             MOV     B,#0AH
06DC A4             5678             MUL     AB
06DD FF             5679             MOV     R7,A
06DE E500     F     5680             MOV     A,zbuf+0DH
06E0 540F           5681             ANL     A,#0FH
06E2 2F             5682             ADD     A,R7
06E3 F500     F     5683             MOV     i1,A
06E5 7800     F     5684             MOV     R0,#LOW (CLK_DAY)
06E7 F6             5685             MOV     @R0,A
06E8 7800     F     5686             MOV     R0,#LOW (Kld_Month)
06EA A600     F     5687             MOV     @R0,zbuf+0EH
06EC 7800     F     5688             MOV     R0,#LOW (Kld_Year)
06EE A600     F     5689             MOV     @R0,zbuf+0FH
06F0 85A300   F     5690             MOV     i1,SEC
06F3 E4             5691             CLR     A
06F4 7800     F     5692             MOV     R0,#LOW (j)
06F6 F6             5693             MOV     @R0,A
06F7                5694     ?C0471:
06F7 E500     F     5695             MOV     A,i1
06F9 D3             5696             SETB    C
06FA 9409           5697             SUBB    A,#09H
06FC 400B           5698             JC      ?C0472
06FE 7800     F     5699             MOV     R0,#LOW (j)
0700 06             5700             INC     @R0
0701 74F6           5701             MOV     A,#0F6H
0703 2500     F     5702             ADD     A,i1
0705 F500     F     5703             MOV     i1,A
0707 80EE           5704             SJMP    ?C0471
0709                5705     ?C0472:
A51 MACRO ASSEMBLER  MAIN_BKCD                                                            12/02/2009 12:07:33 PAGE    88

0709 7800     F     5706             MOV     R0,#LOW (j)
070B E6             5707             MOV     A,@R0
070C C4             5708             SWAP    A
070D 54F0           5709             ANL     A,#0F0H
070F 4500     F     5710             ORL     A,i1
0711 F500     F     5711             MOV     zbuf+09H,A
0713 85A400   F     5712             MOV     i1,MIN
0716 E4             5713             CLR     A
0717 F6             5714             MOV     @R0,A
0718                5715     ?C0473:
0718 E500     F     5716             MOV     A,i1
071A D3             5717             SETB    C
071B 9409           5718             SUBB    A,#09H
071D 400B           5719             JC      ?C0474
071F 7800     F     5720             MOV     R0,#LOW (j)
0721 06             5721             INC     @R0
0722 74F6           5722             MOV     A,#0F6H
0724 2500     F     5723             ADD     A,i1
0726 F500     F     5724             MOV     i1,A
0728 80EE           5725             SJMP    ?C0473
072A                5726     ?C0474:
072A 7800     F     5727             MOV     R0,#LOW (j)
072C E6             5728             MOV     A,@R0
072D C4             5729             SWAP    A
072E 54F0           5730             ANL     A,#0F0H
0730 4500     F     5731             ORL     A,i1
0732 F500     F     5732             MOV     zbuf+0AH,A
0734 85A500   F     5733             MOV     i1,HOUR
0737 E4             5734             CLR     A
0738 F6             5735             MOV     @R0,A
0739                5736     ?C0475:
0739 E500     F     5737             MOV     A,i1
073B D3             5738             SETB    C
073C 9409           5739             SUBB    A,#09H
073E 400B           5740             JC      ?C0476
0740 7800     F     5741             MOV     R0,#LOW (j)
0742 06             5742             INC     @R0
0743 74F6           5743             MOV     A,#0F6H
0745 2500     F     5744             ADD     A,i1
0747 F500     F     5745             MOV     i1,A
0749 80EE           5746             SJMP    ?C0475
074B                5747     ?C0476:
074B 7800     F     5748             MOV     R0,#LOW (j)
074D E6             5749             MOV     A,@R0
074E C4             5750             SWAP    A
074F 54F0           5751             ANL     A,#0F0H
0751 4500     F     5752             ORL     A,i1
0753 F500     F     5753             MOV     zbuf+0BH,A
0755 E4             5754             CLR     A
0756 F500     F     5755             MOV     zbuf+0CH,A
0758 7800     F     5756             MOV     R0,#LOW (CLK_DAY)
075A E6             5757             MOV     A,@R0
075B F500     F     5758             MOV     i1,A
075D E4             5759             CLR     A
075E 7800     F     5760             MOV     R0,#LOW (j)
0760 F6             5761             MOV     @R0,A
0761                5762     ?C0477:
0761 E500     F     5763             MOV     A,i1
0763 D3             5764             SETB    C
0764 9409           5765             SUBB    A,#09H
0766 400B           5766             JC      ?C0478
0768 7800     F     5767             MOV     R0,#LOW (j)
076A 06             5768             INC     @R0
076B 74F6           5769             MOV     A,#0F6H
076D 2500     F     5770             ADD     A,i1
076F F500     F     5771             MOV     i1,A
A51 MACRO ASSEMBLER  MAIN_BKCD                                                            12/02/2009 12:07:33 PAGE    89

0771 80EE           5772             SJMP    ?C0477
0773                5773     ?C0478:
0773 7800     F     5774             MOV     R0,#LOW (j)
0775 E6             5775             MOV     A,@R0
0776 C4             5776             SWAP    A
0777 54F0           5777             ANL     A,#0F0H
0779 4500     F     5778             ORL     A,i1
077B F500     F     5779             MOV     zbuf+0DH,A
077D 7800     F     5780             MOV     R0,#LOW (Kld_Month)
077F E6             5781             MOV     A,@R0
0780 F500     F     5782             MOV     zbuf+0EH,A
0782 7800     F     5783             MOV     R0,#LOW (Kld_Year)
0784 E6             5784             MOV     A,@R0
0785 F500     F     5785             MOV     zbuf+0FH,A
                    5786     ;                                       bufout[6]=zbuf[6];/*bufout[7]=0x01;*/ 
                    5787                             ; SOURCE LINE # 997
0787 900046         5788             MOV     DPTR,#bufout+06H
078A E500     F     5789             MOV     A,zbuf+06H
078C F0             5790             MOVX    @DPTR,A
                    5791     ;                                       bufout[7]=IND_TAB; bufout[8]=zbuf[8];zbuf[5]=11;
                    5792                             ; SOURCE LINE # 998
078D A3             5793             INC     DPTR
078E E500     F     5794             MOV     A,IND_TAB
0790 F0             5795             MOVX    @DPTR,A
0791 A3             5796             INC     DPTR
0792 E500     F     5797             MOV     A,zbuf+08H
0794 F0             5798             MOVX    @DPTR,A
0795 75000B   F     5799             MOV     zbuf+05H,#0BH
                    5800     ;                                       for(i1=0;i1<8;i1++)
                    5801                             ; SOURCE LINE # 999
0798 E4             5802             CLR     A
0799 F500     F     5803             MOV     i1,A
079B                5804     ?C0479:
                    5805     ;                                       {       bufout[9+i1]=zbuf[9+i1];}                  
                                       
                    5806                             ; SOURCE LINE # 1000
079B 7400     F     5807             MOV     A,#LOW (zbuf+09H)
079D 2500     F     5808             ADD     A,i1
079F F8             5809             MOV     R0,A
07A0 E6             5810             MOV     A,@R0
07A1 FF             5811             MOV     R7,A
07A2 7449           5812             MOV     A,#LOW (bufout+09H)
07A4 2500     F     5813             ADD     A,i1
07A6 F582           5814             MOV     DPL,A
07A8 E4             5815             CLR     A
07A9 3400           5816             ADDC    A,#HIGH (bufout+09H)
07AB F583           5817             MOV     DPH,A
07AD EF             5818             MOV     A,R7
07AE F0             5819             MOVX    @DPTR,A
07AF 0500     F     5820             INC     i1
07B1 E500     F     5821             MOV     A,i1
07B3 B408E5         5822             CJNE    A,#08H,?C0479
                    5823     ;                                               
                    5824     ;                                // len_o=17;
                    5825     ;                                }
                    5826                             ; SOURCE LINE # 1003
                    5827     ; 
                    5828     ;             }
                    5829                             ; SOURCE LINE # 1005
07B6                5830     ?C0341:
                    5831     ; 
                    5832     ; 
                    5833     ;        
                    5834     ;                  if((adcins[0]&0x3F)==0x37) // read Flash zikl в обратном направлении
                    5835                             ; SOURCE LINE # 1009
07B6 7800     F     5836             MOV     R0,#LOW (adcins)
A51 MACRO ASSEMBLER  MAIN_BKCD                                                            12/02/2009 12:07:33 PAGE    90

07B8 E6             5837             MOV     A,@R0
07B9 543F           5838             ANL     A,#03FH
07BB 6437           5839             XRL     A,#037H
07BD 704F           5840             JNZ     ?C0482
                    5841     ;            {                           
                    5842                             ; SOURCE LINE # 1010
                    5843     ;               
                    5844     ;                       EA=0;
                    5845                             ; SOURCE LINE # 1012
07BF C2AF           5846             CLR     EA
                    5847     ;                       WR=1;
                    5848                             ; SOURCE LINE # 1013
07C1 D2B6           5849             SETB    WR
                    5850     ;       //              CM1=(zbuf[7]<<8)|zbuf[8];
                    5851     ;                       CM1=0;
                    5852                             ; SOURCE LINE # 1015
07C3 F500     F     5853             MOV     CM1,A
07C5 F500     F     5854             MOV     CM1+01H,A
                    5855     ;               for  (j=1;j<9;j++)
                    5856                             ; SOURCE LINE # 1016
07C7 7800     F     5857             MOV     R0,#LOW (j)
07C9 7601           5858             MOV     @R0,#01H
07CB                5859     ?C0483:
                    5860     ;                       for(i1=0;i1<127;i1++)
                    5861                             ; SOURCE LINE # 1017
07CB E4             5862             CLR     A
07CC F500     F     5863             MOV     i1,A
07CE                5864     ?C0486:
                    5865     ;                       {
                    5866                             ; SOURCE LINE # 1018
                    5867     ;                               tmpadc=*(int xdata*)CM1;
                    5868                             ; SOURCE LINE # 1019
07CE 850082   F     5869             MOV     DPL,CM1+01H
07D1 850083   F     5870             MOV     DPH,CM1
07D4 E0             5871             MOVX    A,@DPTR
07D5 F500     F     5872             MOV     tmpadc,A
07D7 A3             5873             INC     DPTR
07D8 E0             5874             MOVX    A,@DPTR
07D9 F500     F     5875             MOV     tmpadc+01H,A
                    5876     ;                       SBUF=tmpadc>>8;
                    5877                             ; SOURCE LINE # 1020
07DB E500     F     5878             MOV     A,tmpadc
07DD F599           5879             MOV     SBUF,A
07DF                5880     ?C0489:
                    5881     ;                               while (TI==0)
                    5882                             ; SOURCE LINE # 1021
07DF 3099FD         5883             JNB     TI,?C0489
                    5884     ;                               {}
                    5885                             ; SOURCE LINE # 1022
07E2                5886     ?C0490:
                    5887     ;                               TI=0;   
                    5888                             ; SOURCE LINE # 1023
07E2 C299           5889             CLR     TI
                    5890     ;                               SBUF=tmpadc;
                    5891                             ; SOURCE LINE # 1024
07E4 850099   F     5892             MOV     SBUF,tmpadc+01H
07E7                5893     ?C0491:
                    5894     ;                               while (TI==0)
                    5895                             ; SOURCE LINE # 1025
07E7 3099FD         5896             JNB     TI,?C0491
                    5897     ;                               {}
                    5898                             ; SOURCE LINE # 1026
07EA                5899     ?C0492:
                    5900     ;                               TI=0;
                    5901                             ; SOURCE LINE # 1027
07EA C299           5902             CLR     TI
A51 MACRO ASSEMBLER  MAIN_BKCD                                                            12/02/2009 12:07:33 PAGE    91

                    5903     ;                               CM1++;
                    5904                             ; SOURCE LINE # 1028
07EC 0500     F     5905             INC     CM1+01H
07EE E500     F     5906             MOV     A,CM1+01H
07F0 7002           5907             JNZ     ?C0733
07F2 0500     F     5908             INC     CM1
07F4                5909     ?C0733:
                    5910     ;                               CM1++;
                    5911                             ; SOURCE LINE # 1029
07F4 0500     F     5912             INC     CM1+01H
07F6 E500     F     5913             MOV     A,CM1+01H
07F8 7002           5914             JNZ     ?C0734
07FA 0500     F     5915             INC     CM1
07FC                5916     ?C0734:
                    5917     ;                       }
                    5918                             ; SOURCE LINE # 1030
07FC 0500     F     5919             INC     i1
07FE E500     F     5920             MOV     A,i1
0800 B47FCB         5921             CJNE    A,#07FH,?C0486
0803                5922     ?C0485:
0803 7800     F     5923             MOV     R0,#LOW (j)
0805 06             5924             INC     @R0
0806 E6             5925             MOV     A,@R0
0807 B409C1         5926             CJNE    A,#09H,?C0483
080A                5927     ?C0484:
                    5928     ;       
                    5929     ;                       WR=0;
                    5930                             ; SOURCE LINE # 1032
080A C2B6           5931             CLR     WR
                    5932     ;                       EA=1;
                    5933                             ; SOURCE LINE # 1033
080C D2AF           5934             SETB    EA
                    5935     ;            }
                    5936                             ; SOURCE LINE # 1034
080E                5937     ?C0482:
                    5938     ;       
                    5939     ;              if((adcins[0]&0x3F)==0x38) // read Flash zikl в прямом направлении
                    5940                             ; SOURCE LINE # 1036
080E 7800     F     5941             MOV     R0,#LOW (adcins)
0810 E6             5942             MOV     A,@R0
0811 543F           5943             ANL     A,#03FH
0813 6438           5944             XRL     A,#038H
0815 6003           5945             JZ      $ + 5H
0817 020000   F     5946             LJMP    ?C0493
                    5947     ;            {                           
                    5948                             ; SOURCE LINE # 1037
                    5949     ;                            cmd=1;
                    5950                             ; SOURCE LINE # 1038
081A 750001   F     5951             MOV     cmd,#01H
                    5952     ;                                FL_21=1;
                    5953                             ; SOURCE LINE # 1039
081D D200     F     5954             SETB    FL_21
                    5955     ;                                FUM_Rd_Flash(PA_H,PA_L,ADR_BF,a,j2,j) //макрос        
                    5956                             ; SOURCE LINE # 1040
081F 08             5957             INC     R0
0820 E6             5958             MOV     A,@R0
0821 7800     F     5959             MOV     R0,#LOW (a?)
0823 F6             5960             MOV     @R0,A
0824 7800     F     5961             MOV     R0,#LOW (adcbuf)
0826 7652           5962             MOV     @R0,#052H
0828 900000   F     5963             MOV     DPTR,#PA_H
082B E0             5964             MOVX    A,@DPTR
082C 08             5965             INC     R0
082D F6             5966             MOV     @R0,A
082E A3             5967             INC     DPTR
082F E0             5968             MOVX    A,@DPTR
A51 MACRO ASSEMBLER  MAIN_BKCD                                                            12/02/2009 12:07:33 PAGE    92

0830 FF             5969             MOV     R7,A
0831 08             5970             INC     R0
0832 F6             5971             MOV     @R0,A
0833 A3             5972             INC     DPTR
0834 E0             5973             MOVX    A,@DPTR
0835 08             5974             INC     R0
0836 F6             5975             MOV     @R0,A
0837 18             5976             DEC     R0
0838 E6             5977             MOV     A,@R0
0839 54FC           5978             ANL     A,#0FCH
083B F6             5979             MOV     @R0,A
083C EF             5980             MOV     A,R7
083D 30E104         5981             JNB     ACC.1,?C0494
0840 E6             5982             MOV     A,@R0
0841 4401           5983             ORL     A,#01H
0843 F6             5984             MOV     @R0,A
0844                5985     ?C0494:
0844 E4             5986             CLR     A
0845 7800     F     5987             MOV     R0,#LOW (adcbuf+04H)
0847 F6             5988             MOV     @R0,A
0848 08             5989             INC     R0
0849 F6             5990             MOV     @R0,A
084A 08             5991             INC     R0
084B F6             5992             MOV     @R0,A
084C 08             5993             INC     R0
084D F6             5994             MOV     @R0,A
084E 08             5995             INC     R0
084F F6             5996             MOV     @R0,A
0850 7800     F     5997             MOV     R0,#LOW (j2)
0852 F6             5998             MOV     @R0,A
0853                5999     ?C0495:
0853 7900     F     6000             MOV     R1,#LOW (j2)
0855 E7             6001             MOV     A,@R1
0856 C3             6002             CLR     C
0857 7800     F     6003             MOV     R0,#LOW (a?)
0859 96             6004             SUBB    A,@R0
085A 4003           6005             JC      $ + 5H
085C 020000   F     6006             LJMP    ?C0493
085F 53A0BF         6007             ANL     P2,#0BFH
0862 E4             6008             CLR     A
0863 7800     F     6009             MOV     R0,#LOW (j)
0865 F6             6010             MOV     @R0,A
0866                6011     ?C0498:
0866 7800     F     6012             MOV     R0,#LOW (j)
0868 E6             6013             MOV     A,@R0
0869 FF             6014             MOV     R7,A
086A C3             6015             CLR     C
086B 9409           6016             SUBB    A,#09H
086D 5011           6017             JNC     ?C0503
086F 7400     F     6018             MOV     A,#LOW (adcbuf)
0871 2F             6019             ADD     A,R7
0872 F8             6020             MOV     R0,A
0873 E6             6021             MOV     A,@R0
0874 F5F7           6022             MOV     SPIDAT,A
0876                6023     ?C0501:
0876 30FFFD         6024             JNB     ISPI,?C0501
0879                6025     ?C0502:
0879 C2FF           6026             CLR     ISPI
087B 7800     F     6027             MOV     R0,#LOW (j)
087D 06             6028             INC     @R0
087E 80E6           6029             SJMP    ?C0498
0880                6030     ?C0503:
0880 2000FD   F     6031             JB      t,?C0503
0883                6032     ?C0504:
0883 E4             6033             CLR     A
0884 7800     F     6034             MOV     R0,#LOW (j)
A51 MACRO ASSEMBLER  MAIN_BKCD                                                            12/02/2009 12:07:33 PAGE    93

0886 F6             6035             MOV     @R0,A
0887                6036     ?C0505:
0887 7800     F     6037             MOV     R0,#LOW (j)
0889 E6             6038             MOV     A,@R0
088A FF             6039             MOV     R7,A
088B C3             6040             CLR     C
088C 9410           6041             SUBB    A,#010H
088E 501A           6042             JNC     ?C0506
0890 7446           6043             MOV     A,#LOW (bufout+06H)
0892 2F             6044             ADD     A,R7
0893 F582           6045             MOV     DPL,A
0895 E4             6046             CLR     A
0896 3400           6047             ADDC    A,#HIGH (bufout+06H)
0898 F583           6048             MOV     DPH,A
089A E5F7           6049             MOV     A,SPIDAT
089C F0             6050             MOVX    @DPTR,A
089D E4             6051             CLR     A
089E F5F7           6052             MOV     SPIDAT,A
08A0                6053     ?C0508:
08A0 30FFFD         6054             JNB     ISPI,?C0508
08A3                6055     ?C0509:
08A3 C2FF           6056             CLR     ISPI
08A5 7800     F     6057             MOV     R0,#LOW (j)
08A7 06             6058             INC     @R0
08A8 80DD           6059             SJMP    ?C0505
08AA                6060     ?C0506:
08AA 43A040         6061             ORL     P2,#040H
08AD 750017   F     6062             MOV     zbuf+02H,#017H
08B0 750002   F     6063             MOV     zbuf+03H,#02H
08B3 750020   F     6064             MOV     zbuf+04H,#020H
08B6 750010   F     6065             MOV     zbuf+05H,#010H
08B9 C200     F     6066             CLR     fcoplbuf
08BB 900042         6067             MOV     DPTR,#bufout+02H
08BE 7417           6068             MOV     A,#017H
08C0 F0             6069             MOVX    @DPTR,A
08C1 750016   F     6070             MOV     len,#016H
08C4 D200     F     6071             SETB    t
08C6                6072     ?C0510:
08C6 2000FD   F     6073             JB      t,?C0510
08C9                6074     ?C0511:
08C9 7800     F     6075             MOV     R0,#LOW (adcbuf+03H)
08CB E6             6076             MOV     A,@R0
08CC 54F0           6077             ANL     A,#0F0H
08CE 2410           6078             ADD     A,#010H
08D0 F6             6079             MOV     @R0,A
08D1 700F           6080             JNZ     ?C0497
08D3 18             6081             DEC     R0
08D4 06             6082             INC     @R0
08D5 E6             6083             MOV     A,@R0
08D6 30E102         6084             JNB     ACC.1,?C0513
08D9 06             6085             INC     @R0
08DA 06             6086             INC     @R0
08DB                6087     ?C0513:
08DB 7800     F     6088             MOV     R0,#LOW (adcbuf+02H)
08DD E6             6089             MOV     A,@R0
08DE 7002           6090             JNZ     ?C0497
08E0 18             6091             DEC     R0
08E1 06             6092             INC     @R0
08E2                6093     ?C0497:
08E2 7800     F     6094             MOV     R0,#LOW (j2)
08E4 06             6095             INC     @R0
08E5 020000   F     6096             LJMP    ?C0495
                    6097     ;            }
                    6098                             ; SOURCE LINE # 1041
08E8                6099     ?C0493:
                    6100     ;       
A51 MACRO ASSEMBLER  MAIN_BKCD                                                            12/02/2009 12:07:33 PAGE    94

                    6101     ;              if((adcins[0]&0x3F)==0x39) // читать RAM
                    6102                             ; SOURCE LINE # 1043
08E8 7800     F     6103             MOV     R0,#LOW (adcins)
08EA E6             6104             MOV     A,@R0
08EB 543F           6105             ANL     A,#03FH
08ED 6439           6106             XRL     A,#039H
08EF 6003           6107             JZ      $ + 5H
08F1 020000   F     6108             LJMP    ?C0515
                    6109     ;            {                           
                    6110                             ; SOURCE LINE # 1044
                    6111     ;                   tmpadc_m=zbuf[8]<<8|zbuf[9];//адресRAM
                    6112                             ; SOURCE LINE # 1045
08F4 E500     F     6113             MOV     A,zbuf+08H
08F6 F500     F     6114             MOV     tmpadc_m,A
08F8 E500     F     6115             MOV     A,zbuf+09H
08FA F500     F     6116             MOV     tmpadc_m+01H,A
                    6117     ;                                       a=zbuf[10];if(a>24)a=24; // длина в байтах
                    6118                             ; SOURCE LINE # 1046
08FC 7800     F     6119             MOV     R0,#LOW (a?)
08FE A600     F     6120             MOV     @R0,zbuf+0AH
0900 E500     F     6121             MOV     A,zbuf+0AH
0902 D3             6122             SETB    C
0903 9418           6123             SUBB    A,#018H
0905 4002           6124             JC      ?C0516
0907 7618           6125             MOV     @R0,#018H
0909                6126     ?C0516:
                    6127     ;                                       if(zbuf[7]==2) //обращение к RAM(2k)
                    6128                             ; SOURCE LINE # 1047
0909 E500     F     6129             MOV     A,zbuf+07H
090B 6402           6130             XRL     A,#02H
090D 6003           6131             JZ      $ + 5H
090F 020000   F     6132             LJMP    ?kmd?PR01
                    6133     ;                                       {
                    6134                             ; SOURCE LINE # 1048
                    6135     ;                                               if ((cmd&0x01) == 1)
                    6136                             ; SOURCE LINE # 1049
0912 E500     F     6137             MOV     A,cmd
0914 30E039         6138             JNB     ACC.0,?C0518
                    6139     ;                                               {
                    6140                             ; SOURCE LINE # 1050
                    6141     ;                                                       if(tmpadc_m<0400) goto PR01;
                    6142                             ; SOURCE LINE # 1051
0917 C3             6143             CLR     C
0918 E500     F     6144             MOV     A,tmpadc_m
091A 9401           6145             SUBB    A,#01H
091C 5003           6146             JNC     $ + 5H
091E 020000   F     6147             LJMP    ?kmd?PR01
0921                6148     ?C0519:
                    6149     ;                                                       if(a>19)a=19;
                    6150                             ; SOURCE LINE # 1052
0921 7800     F     6151             MOV     R0,#LOW (a?)
0923 E6             6152             MOV     A,@R0
0924 D3             6153             SETB    C
0925 9413           6154             SUBB    A,#013H
0927 4002           6155             JC      ?C0521
0929 7613           6156             MOV     @R0,#013H
092B                6157     ?C0521:
                    6158     ;                                                       for(j2=0;j2<a;j2++)
                    6159                             ; SOURCE LINE # 1053
092B E4             6160             CLR     A
092C 7800     F     6161             MOV     R0,#LOW (j2)
092E F6             6162             MOV     @R0,A
092F                6163     ?C0522:
092F 7800     F     6164             MOV     R0,#LOW (j2)
0931 E6             6165             MOV     A,@R0
0932 FF             6166             MOV     R7,A
A51 MACRO ASSEMBLER  MAIN_BKCD                                                            12/02/2009 12:07:33 PAGE    95

0933 C3             6167             CLR     C
0934 7800     F     6168             MOV     R0,#LOW (a?)
0936 96             6169             SUBB    A,@R0
0937 5017           6170             JNC     ?C0518
                    6171     ;                                               {
                    6172                             ; SOURCE LINE # 1054
                    6173     ;                                                       *((char xdata*)tmpadc_m+j2)=zbuf[11
                             +j2] ;
                    6174                             ; SOURCE LINE # 1055
0939 7400     F     6175             MOV     A,#LOW (zbuf+0BH)
093B 2F             6176             ADD     A,R7
093C F8             6177             MOV     R0,A
093D E6             6178             MOV     A,@R0
093E FE             6179             MOV     R6,A
093F E500     F     6180             MOV     A,tmpadc_m+01H
0941 2F             6181             ADD     A,R7
0942 F582           6182             MOV     DPL,A
0944 E4             6183             CLR     A
0945 3500     F     6184             ADDC    A,tmpadc_m
0947 F583           6185             MOV     DPH,A
0949 EE             6186             MOV     A,R6
094A F0             6187             MOVX    @DPTR,A
                    6188     ;                                               }     
                    6189                             ; SOURCE LINE # 1056
094B 7800     F     6190             MOV     R0,#LOW (j2)
094D 06             6191             INC     @R0
094E 80DF           6192             SJMP    ?C0522
                    6193     ;                                               }
                    6194                             ; SOURCE LINE # 1057
0950                6195     ?C0518:
                    6196     ;                                               if ((cmd&0x02) == 2)
                    6197                             ; SOURCE LINE # 1058
0950 E500     F     6198             MOV     A,cmd
0952 20E103         6199             JB      ACC.1,$ + 6H
0955 020000   F     6200             LJMP    ?kmd?PR01
                    6201     ;                                               {
                    6202                             ; SOURCE LINE # 1059
                    6203     ;               // что делать с той строчкой??                                   while(t==1
                             );
                    6204     ;                                                       for(j2=0;j2<a;j2++)
                    6205                             ; SOURCE LINE # 1061
0958 E4             6206             CLR     A
0959 7800     F     6207             MOV     R0,#LOW (j2)
095B F6             6208             MOV     @R0,A
095C                6209     ?C0526:
095C 7900     F     6210             MOV     R1,#LOW (j2)
095E E7             6211             MOV     A,@R1
095F C3             6212             CLR     C
0960 7800     F     6213             MOV     R0,#LOW (a?)
0962 96             6214             SUBB    A,@R0
0963 501E           6215             JNC     ?C0527
                    6216     ;                                               {
                    6217                             ; SOURCE LINE # 1062
                    6218     ;                                                        bufout[6+j2]= *((char xdata*)tmpad
                             c_m+j2) ;
                    6219                             ; SOURCE LINE # 1063
0965 7800     F     6220             MOV     R0,#LOW (j2)
0967 E6             6221             MOV     A,@R0
0968 FF             6222             MOV     R7,A
0969 2500     F     6223             ADD     A,tmpadc_m+01H
096B F582           6224             MOV     DPL,A
096D E4             6225             CLR     A
096E 3500     F     6226             ADDC    A,tmpadc_m
0970 F583           6227             MOV     DPH,A
0972 E0             6228             MOVX    A,@DPTR
0973 FE             6229             MOV     R6,A
A51 MACRO ASSEMBLER  MAIN_BKCD                                                            12/02/2009 12:07:33 PAGE    96

0974 7446           6230             MOV     A,#LOW (bufout+06H)
0976 2F             6231             ADD     A,R7
0977 F582           6232             MOV     DPL,A
0979 E4             6233             CLR     A
097A 3400           6234             ADDC    A,#HIGH (bufout+06H)
097C F583           6235             MOV     DPH,A
097E EE             6236             MOV     A,R6
097F F0             6237             MOVX    @DPTR,A
                    6238     ;                                                       }
                    6239                             ; SOURCE LINE # 1064
0980 06             6240             INC     @R0
0981 80D9           6241             SJMP    ?C0526
0983                6242     ?C0527:
                    6243     ;                                                    zbuf[2]=a+7;zbuf[3]=0x02;zbuf[4]=0x20;
                             zbuf[5]=a;//0x18;           
                    6244                             ; SOURCE LINE # 1065
0983 7800     F     6245             MOV     R0,#LOW (a?)
0985 E6             6246             MOV     A,@R0
0986 FF             6247             MOV     R7,A
0987 2407           6248             ADD     A,#07H
0989 F500     F     6249             MOV     zbuf+02H,A
098B 750002   F     6250             MOV     zbuf+03H,#02H
098E 750020   F     6251             MOV     zbuf+04H,#020H
0991 8F00     F     6252             MOV     zbuf+05H,R7
                    6253     ;                                                    bufout[2]=zbuf[2];len=a+6;t = 1;//whil
                             e(t==1);
                    6254                             ; SOURCE LINE # 1066
0993 900042         6255             MOV     DPTR,#bufout+02H
0996 F0             6256             MOVX    @DPTR,A
0997 EF             6257             MOV     A,R7
0998 2406           6258             ADD     A,#06H
099A F500     F     6259             MOV     len,A
099C D200     F     6260             SETB    t
                    6261     ;                                                    if(tmpadc_m==0x04C0) 
                    6262                             ; SOURCE LINE # 1067
099E E500     F     6263             MOV     A,tmpadc_m+01H
09A0 64C0           6264             XRL     A,#0C0H
09A2 7004           6265             JNZ     ?C0735
09A4 E500     F     6266             MOV     A,tmpadc_m
09A6 6404           6267             XRL     A,#04H
09A8                6268     ?C0735:
09A8 7052           6269             JNZ     ?kmd?PR01
                    6270     ;                                                    {
                    6271                             ; SOURCE LINE # 1068
                    6272     ;                                                              *((char xdata*)tmpadc_m)=0x0
                             FF; *((char xdata*)tmpadc_m+1)=0x0FF;
                    6273                             ; SOURCE LINE # 1069
09AA 850082   F     6274             MOV     DPL,tmpadc_m+01H
09AD 850083   F     6275             MOV     DPH,tmpadc_m
09B0 74FF           6276             MOV     A,#0FFH
09B2 F0             6277             MOVX    @DPTR,A
09B3 A3             6278             INC     DPTR
09B4 F0             6279             MOVX    @DPTR,A
                    6280     ;                                                               *((char xdata*)tmpadc_m+2)=
                             0x0FF;*((char xdata*)tmpadc_m+3)=0x0FF;
                    6281                             ; SOURCE LINE # 1070
09B5 850082   F     6282             MOV     DPL,tmpadc_m+01H
09B8 850083   F     6283             MOV     DPH,tmpadc_m
09BB A3             6284             INC     DPTR
09BC A3             6285             INC     DPTR
09BD F0             6286             MOVX    @DPTR,A
09BE 850082   F     6287             MOV     DPL,tmpadc_m+01H
09C1 850083   F     6288             MOV     DPH,tmpadc_m
09C4 A3             6289             INC     DPTR
09C5 A3             6290             INC     DPTR
09C6 A3             6291             INC     DPTR
A51 MACRO ASSEMBLER  MAIN_BKCD                                                            12/02/2009 12:07:33 PAGE    97

09C7 F0             6292             MOVX    @DPTR,A
                    6293     ;                                                              *((char xdata*)tmpadc_m+4)=0
                             ; *((char xdata*)tmpadc_m+5)=0;
                    6294                             ; SOURCE LINE # 1071
09C8 E500     F     6295             MOV     A,tmpadc_m+01H
09CA 2404           6296             ADD     A,#04H
09CC F582           6297             MOV     DPL,A
09CE E4             6298             CLR     A
09CF 3500     F     6299             ADDC    A,tmpadc_m
09D1 F583           6300             MOV     DPH,A
09D3 E4             6301             CLR     A
09D4 F0             6302             MOVX    @DPTR,A
09D5 E500     F     6303             MOV     A,tmpadc_m+01H
09D7 2405           6304             ADD     A,#05H
09D9 F582           6305             MOV     DPL,A
09DB E4             6306             CLR     A
09DC 3500     F     6307             ADDC    A,tmpadc_m
09DE F583           6308             MOV     DPH,A
09E0 E4             6309             CLR     A
09E1 F0             6310             MOVX    @DPTR,A
                    6311     ;                                                               *((char xdata*)tmpadc_m+6)=
                             0; *((char xdata*)tmpadc_m+7)=0;
                    6312                             ; SOURCE LINE # 1072
09E2 E500     F     6313             MOV     A,tmpadc_m+01H
09E4 2406           6314             ADD     A,#06H
09E6 F582           6315             MOV     DPL,A
09E8 E4             6316             CLR     A
09E9 3500     F     6317             ADDC    A,tmpadc_m
09EB F583           6318             MOV     DPH,A
09ED E4             6319             CLR     A
09EE F0             6320             MOVX    @DPTR,A
09EF E500     F     6321             MOV     A,tmpadc_m+01H
09F1 2407           6322             ADD     A,#07H
09F3 F582           6323             MOV     DPL,A
09F5 E4             6324             CLR     A
09F6 3500     F     6325             ADDC    A,tmpadc_m
09F8 F583           6326             MOV     DPH,A
09FA E4             6327             CLR     A
09FB F0             6328             MOVX    @DPTR,A
                    6329     ;                                                 } 
                    6330                             ; SOURCE LINE # 1073
                    6331     ;                                               }
                    6332                             ; SOURCE LINE # 1074
                    6333     ;                                       }
                    6334                             ; SOURCE LINE # 1075
                    6335     ;                                        PR01:
                    6336                             ; SOURCE LINE # 1076
09FC                6337     ?kmd?PR01:
                    6338     ;                                        cmd=1;   
                    6339                             ; SOURCE LINE # 1077
09FC 750001   F     6340             MOV     cmd,#01H
                    6341     ;                  
                    6342     ;              }
                    6343                             ; SOURCE LINE # 1079
09FF                6344     ?C0515:
                    6345     ; 
                    6346     ;            if((adcins[0]&0x3F)==0x3A) // читать\писать EEPROM
                    6347                             ; SOURCE LINE # 1081
                    6348     ;            {                           
                    6349                             ; SOURCE LINE # 1082
                    6350     ;           // не понятно что сделать дальшее   
                    6351     ;            //      ADC0=adcins[1]; //12 0C;//13;
                    6352     ;            }
                    6353                             ; SOURCE LINE # 1085
09FF                6354     ?C0530:
                    6355     ;            
A51 MACRO ASSEMBLER  MAIN_BKCD                                                            12/02/2009 12:07:33 PAGE    98

                    6356     ;                  if((adcins[0]&0x3F)==0x3B) // вкл выкл активность..
                    6357                             ; SOURCE LINE # 1087
09FF 7800     F     6358             MOV     R0,#LOW (adcins)
0A01 E6             6359             MOV     A,@R0
0A02 543F           6360             ANL     A,#03FH
0A04 FF             6361             MOV     R7,A
0A05 BF3B1C         6362             CJNE    R7,#03BH,?C0531
                    6363     ;            {                           
                    6364                             ; SOURCE LINE # 1088
                    6365     ;                               
                    6366     ;                       //      ob_par=zbuf[7]; 
                    6367     ;                       if (zbuf[7]!=0xFF)
                    6368                             ; SOURCE LINE # 1091
0A08 E500     F     6369             MOV     A,zbuf+07H
0A0A F4             6370             CPL     A
0A0B 600E           6371             JZ      ?C0532
                    6372     ;                       {       if (s_otv==0xFF)
                    6373                             ; SOURCE LINE # 1092
0A0D 900000   F     6374             MOV     DPTR,#s_otv
0A10 E0             6375             MOVX    A,@DPTR
0A11 B4FF10         6376             CJNE    A,#0FFH,?C0531
                    6377     ;                                       {s_otv=zbuf[7];
                    6378                             ; SOURCE LINE # 1093
0A14 E500     F     6379             MOV     A,zbuf+07H
0A16 F0             6380             MOVX    @DPTR,A
                    6381     ;                                               tms=s_otv+s_otv;}
                    6382                             ; SOURCE LINE # 1094
0A17 2500     F     6383             ADD     A,zbuf+07H
                    6384     ;                       }
                    6385                             ; SOURCE LINE # 1095
0A19 8006           6386             SJMP    ?C0748
0A1B                6387     ?C0532:
                    6388     ;                       else
                    6389     ;                               {s_otv=0xFF;
                    6390                             ; SOURCE LINE # 1097
0A1B 900000   F     6391             MOV     DPTR,#s_otv
0A1E 74FF           6392             MOV     A,#0FFH
0A20 F0             6393             MOVX    @DPTR,A
                    6394     ;                                tms=0xFF;      }       
                    6395                             ; SOURCE LINE # 1098
0A21                6396     ?C0748:
0A21 7800     F     6397             MOV     R0,#LOW (tms)
0A23 F6             6398             MOV     @R0,A
                    6399     ;            }
                    6400                             ; SOURCE LINE # 1099
0A24                6401     ?C0531:
                    6402     ;            
                    6403     ;                  if((adcins[0]&0x3F)==0x3C) // рестарт модуля
                    6404                             ; SOURCE LINE # 1101
0A24 BF3C0F         6405             CJNE    R7,#03CH,?C0535
                    6406     ;            {                                                    
                    6407                             ; SOURCE LINE # 1102
                    6408     ;                       cmd=1;
                    6409                             ; SOURCE LINE # 1103
0A27 750001   F     6410             MOV     cmd,#01H
0A2A                6411     ?C0536:
                    6412     ;                                         while (WR==1)
                    6413                             ; SOURCE LINE # 1104
0A2A 20B6FD         6414             JB      WR,?C0536
                    6415     ;                                         {
                    6416                             ; SOURCE LINE # 1105
                    6417     ;                                         }
                    6418                             ; SOURCE LINE # 1106
0A2D                6419     ?C0537:
                    6420     ;                                   //  while(t==1);
                    6421     ;                                   //  while(ztld ==1);
A51 MACRO ASSEMBLER  MAIN_BKCD                                                            12/02/2009 12:07:33 PAGE    99

                    6422     ;                       //зачем то???      
                    6423     ;                          EA = 0; 
                    6424                             ; SOURCE LINE # 1110
0A2D C2AF           6425             CLR     EA
                    6426     ;                          //обнулить все 
                    6427     ; //                       sbros();
                    6428     ; 
                    6429     ;                          WDWR=1;WDCON=0x03;
                    6430                             ; SOURCE LINE # 1114
0A2F D2C0           6431             SETB    WDWR
0A31 75C003         6432             MOV     WDCON,#03H
                    6433     ;                          EA = 1; 
                    6434                             ; SOURCE LINE # 1115
0A34 D2AF           6435             SETB    EA
                    6436     ; 
                    6437     ;                                          
                    6438     ;            }
                    6439                             ; SOURCE LINE # 1118
0A36                6440     ?C0535:
                    6441     ;         
                    6442     ;                  if((adcins[0]&0x3F)==0x3D) // сброс значений
                    6443                             ; SOURCE LINE # 1120
0A36 7800     F     6444             MOV     R0,#LOW (adcins)
0A38 E6             6445             MOV     A,@R0
0A39 543F           6446             ANL     A,#03FH
0A3B FF             6447             MOV     R7,A
0A3C BF3D0B         6448             CJNE    R7,#03DH,?C0538
                    6449     ;                {                                                    
                    6450                             ; SOURCE LINE # 1121
                    6451     ;                  if (zbuf[7]!=0xFF)
                    6452                             ; SOURCE LINE # 1122
0A3F E500     F     6453             MOV     A,zbuf+07H
0A41 F4             6454             CPL     A
0A42 6006           6455             JZ      ?C0538
                    6456     ;                                       ob_par=zbuf[7];
                    6457                             ; SOURCE LINE # 1123
0A44 900000   F     6458             MOV     DPTR,#ob_par
0A47 E500     F     6459             MOV     A,zbuf+07H
0A49 F0             6460             MOVX    @DPTR,A
                    6461     ;               }
                    6462                             ; SOURCE LINE # 1124
0A4A                6463     ?C0538:
                    6464     ;            if((adcins[0]&0x3F)==0x3E) // записать\прочитать RAM Clock
                    6465                             ; SOURCE LINE # 1125
0A4A EF             6466             MOV     A,R7
0A4B 643E           6467             XRL     A,#03EH
0A4D 6003           6468             JZ      $ + 5H
0A4F 020000   F     6469             LJMP    ?C0540
                    6470     ;            {                                                    
                    6471                             ; SOURCE LINE # 1126
                    6472     ;                       if((zbuf[8]+zbuf[9])<0x3F)
                    6473                             ; SOURCE LINE # 1127
0A52 E500     F     6474             MOV     A,zbuf+08H
0A54 2500     F     6475             ADD     A,zbuf+09H
0A56 FF             6476             MOV     R7,A
0A57 E4             6477             CLR     A
0A58 33             6478             RLC     A
0A59 FE             6479             MOV     R6,A
0A5A C3             6480             CLR     C
0A5B EF             6481             MOV     A,R7
0A5C 943F           6482             SUBB    A,#03FH
0A5E EE             6483             MOV     A,R6
0A5F 6480           6484             XRL     A,#080H
0A61 9480           6485             SUBB    A,#080H
0A63 4003           6486             JC      $ + 5H
0A65 020000   F     6487             LJMP    ?C0540
A51 MACRO ASSEMBLER  MAIN_BKCD                                                            12/02/2009 12:07:33 PAGE   100

                    6488     ;                               {  
                    6489                             ; SOURCE LINE # 1128
                    6490     ;                                       if(zbuf[9]>10) {zbuf[9]=10;} 
                    6491                             ; SOURCE LINE # 1129
0A68 E500     F     6492             MOV     A,zbuf+09H
0A6A 940A           6493             SUBB    A,#0AH
0A6C 4003           6494             JC      ?C0542
0A6E 75000A   F     6495             MOV     zbuf+09H,#0AH
0A71                6496     ?C0542:
                    6497     ;                                       if ((cmd&0x01) == 1)//   записать 
                    6498                             ; SOURCE LINE # 1130
0A71 E500     F     6499             MOV     A,cmd
0A73 20E003         6500             JB      ACC.0,$ + 6H
0A76 020000   F     6501             LJMP    ?C0543
                    6502     ;                               {
                    6503                             ; SOURCE LINE # 1131
                    6504     ;                                               adcbuf[0]=0xD0;
                    6505                             ; SOURCE LINE # 1132
0A79 7800     F     6506             MOV     R0,#LOW (adcbuf)
0A7B 76D0           6507             MOV     @R0,#0D0H
                    6508     ;                                               adcbuf[1]=zbuf[8]; wadc=zbuf[9]+2;
                    6509                             ; SOURCE LINE # 1133
0A7D 08             6510             INC     R0
0A7E A600     F     6511             MOV     @R0,zbuf+08H
0A80 E500     F     6512             MOV     A,zbuf+09H
0A82 2402           6513             ADD     A,#02H
0A84 F500     F     6514             MOV     wadc,A
                    6515     ;                                       for (j=0;j<zbuf[9];j++)
                    6516                             ; SOURCE LINE # 1134
0A86 E4             6517             CLR     A
0A87 7800     F     6518             MOV     R0,#LOW (j)
0A89 F6             6519             MOV     @R0,A
0A8A                6520     ?C0544:
0A8A 7800     F     6521             MOV     R0,#LOW (j)
0A8C E6             6522             MOV     A,@R0
0A8D C3             6523             CLR     C
0A8E 9500     F     6524             SUBB    A,zbuf+09H
0A90 5012           6525             JNC     ?C0545
                    6526     ;                                       {
                    6527                             ; SOURCE LINE # 1135
                    6528     ;                                               adcbuf[j+2]=zbuf[10+j];
                    6529                             ; SOURCE LINE # 1136
0A92 E6             6530             MOV     A,@R0
0A93 FF             6531             MOV     R7,A
0A94 2400     F     6532             ADD     A,#LOW (zbuf+0AH)
0A96 F8             6533             MOV     R0,A
0A97 E6             6534             MOV     A,@R0
0A98 FE             6535             MOV     R6,A
0A99 7400     F     6536             MOV     A,#LOW (adcbuf+02H)
0A9B 2F             6537             ADD     A,R7
0A9C F8             6538             MOV     R0,A
0A9D A606           6539             MOV     @R0,AR6
                    6540     ;                                       }
                    6541                             ; SOURCE LINE # 1137
0A9F 7800     F     6542             MOV     R0,#LOW (j)
0AA1 06             6543             INC     @R0
0AA2 80E6           6544             SJMP    ?C0544
0AA4                6545     ?C0545:
                    6546     ;                                               FUM_WR_DAT_CLOCK(adcbuf,wadc)  
                    6547                             ; SOURCE LINE # 1138
0AA4 C2EF           6548             CLR     MDO
0AA6 900000   F     6549             MOV     DPTR,#DL
0AA9 7402           6550             MOV     A,#02H
0AAB F0             6551             MOVX    @DPTR,A
0AAC                6552     ?C0547:
0AAC 900000   F     6553             MOV     DPTR,#DL
A51 MACRO ASSEMBLER  MAIN_BKCD                                                            12/02/2009 12:07:33 PAGE   101

0AAF E0             6554             MOVX    A,@DPTR
0AB0 14             6555             DEC     A
0AB1 F0             6556             MOVX    @DPTR,A
0AB2 E0             6557             MOVX    A,@DPTR
0AB3 70F7           6558             JNZ     ?C0547
0AB5                6559     ?C0548:
0AB5 C2ED           6560             CLR     MCO
0AB7 E4             6561             CLR     A
0AB8 7800     F     6562             MOV     R0,#LOW (j2)
0ABA F6             6563             MOV     @R0,A
0ABB                6564     ?C0550:
0ABB 7800     F     6565             MOV     R0,#LOW (j2)
0ABD E6             6566             MOV     A,@R0
0ABE C3             6567             CLR     C
0ABF 9500     F     6568             SUBB    A,wadc
0AC1 5073           6569             JNC     ?C0551
0AC3 E4             6570             CLR     A
0AC4 F500     F     6571             MOV     i1,A
0AC6                6572     ?C0553:
0AC6 7800     F     6573             MOV     R0,#LOW (j2)
0AC8 E6             6574             MOV     A,@R0
0AC9 2400     F     6575             ADD     A,#LOW (adcbuf)
0ACB F8             6576             MOV     R0,A
0ACC E6             6577             MOV     A,@R0
0ACD 20E704         6578             JB      ACC.7,?C0556
0AD0 C2EF           6579             CLR     MDO
0AD2 8002           6580             SJMP    ?C0557
0AD4                6581     ?C0556:
0AD4 D2EF           6582             SETB    MDO
0AD6                6583     ?C0557:
0AD6 900000   F     6584             MOV     DPTR,#DL
0AD9 7402           6585             MOV     A,#02H
0ADB F0             6586             MOVX    @DPTR,A
0ADC                6587     ?C0558:
0ADC 900000   F     6588             MOV     DPTR,#DL
0ADF E0             6589             MOVX    A,@DPTR
0AE0 14             6590             DEC     A
0AE1 F0             6591             MOVX    @DPTR,A
0AE2 E0             6592             MOVX    A,@DPTR
0AE3 70F7           6593             JNZ     ?C0558
0AE5                6594     ?C0559:
0AE5 D2ED           6595             SETB    MCO
0AE7 900000   F     6596             MOV     DPTR,#DL
0AEA 7402           6597             MOV     A,#02H
0AEC F0             6598             MOVX    @DPTR,A
0AED                6599     ?C0561:
0AED 900000   F     6600             MOV     DPTR,#DL
0AF0 E0             6601             MOVX    A,@DPTR
0AF1 14             6602             DEC     A
0AF2 F0             6603             MOVX    @DPTR,A
0AF3 E0             6604             MOVX    A,@DPTR
0AF4 70F7           6605             JNZ     ?C0561
0AF6                6606     ?C0562:
0AF6 C2ED           6607             CLR     MCO
0AF8 7800     F     6608             MOV     R0,#LOW (j2)
0AFA E6             6609             MOV     A,@R0
0AFB 2400     F     6610             ADD     A,#LOW (adcbuf)
0AFD F8             6611             MOV     R0,A
0AFE C000           6612             PUSH    AR0
0B00 E6             6613             MOV     A,@R0
0B01 25E0           6614             ADD     A,ACC
0B03 D000           6615             POP     AR0
0B05 F6             6616             MOV     @R0,A
0B06 C2EF           6617             CLR     MDO
0B08 0500     F     6618             INC     i1
0B0A E500     F     6619             MOV     A,i1
A51 MACRO ASSEMBLER  MAIN_BKCD                                                            12/02/2009 12:07:33 PAGE   102

0B0C B408B7         6620             CJNE    A,#08H,?C0553
0B0F                6621     ?C0554:
0B0F 900000   F     6622             MOV     DPTR,#DL
0B12 7402           6623             MOV     A,#02H
0B14 F0             6624             MOVX    @DPTR,A
0B15                6625     ?C0564:
0B15 900000   F     6626             MOV     DPTR,#DL
0B18 E0             6627             MOVX    A,@DPTR
0B19 14             6628             DEC     A
0B1A F0             6629             MOVX    @DPTR,A
0B1B E0             6630             MOVX    A,@DPTR
0B1C 70F7           6631             JNZ     ?C0564
0B1E                6632     ?C0565:
0B1E D2ED           6633             SETB    MCO
0B20 900000   F     6634             MOV     DPTR,#DL
0B23 7402           6635             MOV     A,#02H
0B25 F0             6636             MOVX    @DPTR,A
0B26                6637     ?C0567:
0B26 900000   F     6638             MOV     DPTR,#DL
0B29 E0             6639             MOVX    A,@DPTR
0B2A 14             6640             DEC     A
0B2B F0             6641             MOVX    @DPTR,A
0B2C E0             6642             MOVX    A,@DPTR
0B2D 70F7           6643             JNZ     ?C0567
0B2F                6644     ?C0568:
0B2F C2ED           6645             CLR     MCO
0B31 7800     F     6646             MOV     R0,#LOW (j2)
0B33 06             6647             INC     @R0
0B34 8085           6648             SJMP    ?C0550
0B36                6649     ?C0551:
0B36 900000   F     6650             MOV     DPTR,#DL
0B39 7402           6651             MOV     A,#02H
0B3B F0             6652             MOVX    @DPTR,A
0B3C                6653     ?C0570:
0B3C 900000   F     6654             MOV     DPTR,#DL
0B3F E0             6655             MOVX    A,@DPTR
0B40 14             6656             DEC     A
0B41 F0             6657             MOVX    @DPTR,A
0B42 E0             6658             MOVX    A,@DPTR
0B43 70F7           6659             JNZ     ?C0570
0B45                6660     ?C0571:
0B45 D2ED           6661             SETB    MCO
0B47 900000   F     6662             MOV     DPTR,#DL
0B4A 7402           6663             MOV     A,#02H
0B4C F0             6664             MOVX    @DPTR,A
0B4D                6665     ?C0573:
0B4D 900000   F     6666             MOV     DPTR,#DL
0B50 E0             6667             MOVX    A,@DPTR
0B51 14             6668             DEC     A
0B52 F0             6669             MOVX    @DPTR,A
0B53 E0             6670             MOVX    A,@DPTR
0B54 70F7           6671             JNZ     ?C0573
0B56                6672     ?C0574:
0B56 D2EF           6673             SETB    MDO
                    6674     ;                               }
                    6675                             ; SOURCE LINE # 1139
0B58                6676     ?C0543:
                    6677     ;                                       if ((cmd&0x02) == 2)   //  читать
                    6678                             ; SOURCE LINE # 1140
0B58 E500     F     6679             MOV     A,cmd
0B5A 20E103         6680             JB      ACC.1,$ + 6H
0B5D 020000   F     6681             LJMP    ?C0540
                    6682     ;                                       {
                    6683                             ; SOURCE LINE # 1141
                    6684     ;                                               wadc1=zbuf[8]; 
                    6685                             ; SOURCE LINE # 1142
A51 MACRO ASSEMBLER  MAIN_BKCD                                                            12/02/2009 12:07:33 PAGE   103

0B60 850000   F     6686             MOV     wadc1,zbuf+08H
                    6687     ;                                               FUM_RD_DAT_CLOCK(wadc1,adcbuf,zbuf[9],wadc)
                    6688                             ; SOURCE LINE # 1143
0B63 7500D0   F     6689             MOV     wadc,#0D0H
0B66 C2EF           6690             CLR     MDO
0B68 900000   F     6691             MOV     DPTR,#DL
0B6B 7402           6692             MOV     A,#02H
0B6D F0             6693             MOVX    @DPTR,A
0B6E                6694     ?C0577:
0B6E 900000   F     6695             MOV     DPTR,#DL
0B71 E0             6696             MOVX    A,@DPTR
0B72 14             6697             DEC     A
0B73 F0             6698             MOVX    @DPTR,A
0B74 E0             6699             MOVX    A,@DPTR
0B75 70F7           6700             JNZ     ?C0577
0B77                6701     ?C0578:
0B77 C2ED           6702             CLR     MCO
0B79 E4             6703             CLR     A
0B7A 7800     F     6704             MOV     R0,#LOW (j)
0B7C F6             6705             MOV     @R0,A
0B7D                6706     ?C0580:
0B7D E4             6707             CLR     A
0B7E F500     F     6708             MOV     i1,A
0B80                6709     ?C0583:
0B80 E500     F     6710             MOV     A,wadc
0B82 20E704         6711             JB      ACC.7,?C0586
0B85 C2EF           6712             CLR     MDO
0B87 8002           6713             SJMP    ?C0587
0B89                6714     ?C0586:
0B89 D2EF           6715             SETB    MDO
0B8B                6716     ?C0587:
0B8B 900000   F     6717             MOV     DPTR,#DL
0B8E 7402           6718             MOV     A,#02H
0B90 F0             6719             MOVX    @DPTR,A
0B91                6720     ?C0588:
0B91 900000   F     6721             MOV     DPTR,#DL
0B94 E0             6722             MOVX    A,@DPTR
0B95 14             6723             DEC     A
0B96 F0             6724             MOVX    @DPTR,A
0B97 E0             6725             MOVX    A,@DPTR
0B98 70F7           6726             JNZ     ?C0588
0B9A                6727     ?C0589:
0B9A D2ED           6728             SETB    MCO
0B9C 900000   F     6729             MOV     DPTR,#DL
0B9F 7402           6730             MOV     A,#02H
0BA1 F0             6731             MOVX    @DPTR,A
0BA2                6732     ?C0591:
0BA2 900000   F     6733             MOV     DPTR,#DL
0BA5 E0             6734             MOVX    A,@DPTR
0BA6 14             6735             DEC     A
0BA7 F0             6736             MOVX    @DPTR,A
0BA8 E0             6737             MOVX    A,@DPTR
0BA9 70F7           6738             JNZ     ?C0591
0BAB                6739     ?C0592:
0BAB C2ED           6740             CLR     MCO
0BAD C2EF           6741             CLR     MDO
0BAF E500     F     6742             MOV     A,wadc
0BB1 25E0           6743             ADD     A,ACC
0BB3 F500     F     6744             MOV     wadc,A
0BB5 0500     F     6745             INC     i1
0BB7 E500     F     6746             MOV     A,i1
0BB9 B408C4         6747             CJNE    A,#08H,?C0583
0BBC                6748     ?C0584:
0BBC 900000   F     6749             MOV     DPTR,#DL
0BBF 7402           6750             MOV     A,#02H
0BC1 F0             6751             MOVX    @DPTR,A
A51 MACRO ASSEMBLER  MAIN_BKCD                                                            12/02/2009 12:07:33 PAGE   104

0BC2                6752     ?C0594:
0BC2 900000   F     6753             MOV     DPTR,#DL
0BC5 E0             6754             MOVX    A,@DPTR
0BC6 14             6755             DEC     A
0BC7 F0             6756             MOVX    @DPTR,A
0BC8 E0             6757             MOVX    A,@DPTR
0BC9 70F7           6758             JNZ     ?C0594
0BCB                6759     ?C0595:
0BCB D2ED           6760             SETB    MCO
0BCD 900000   F     6761             MOV     DPTR,#DL
0BD0 7402           6762             MOV     A,#02H
0BD2 F0             6763             MOVX    @DPTR,A
0BD3                6764     ?C0597:
0BD3 900000   F     6765             MOV     DPTR,#DL
0BD6 E0             6766             MOVX    A,@DPTR
0BD7 14             6767             DEC     A
0BD8 F0             6768             MOVX    @DPTR,A
0BD9 E0             6769             MOVX    A,@DPTR
0BDA 70F7           6770             JNZ     ?C0597
0BDC                6771     ?C0598:
0BDC C2ED           6772             CLR     MCO
0BDE 850000   F     6773             MOV     wadc,wadc1
0BE1 7800     F     6774             MOV     R0,#LOW (j)
0BE3 06             6775             INC     @R0
0BE4 E6             6776             MOV     A,@R0
0BE5 6402           6777             XRL     A,#02H
0BE7 7094           6778             JNZ     ?C0580
0BE9                6779     ?C0581:
0BE9 900000   F     6780             MOV     DPTR,#DL
0BEC 7402           6781             MOV     A,#02H
0BEE F0             6782             MOVX    @DPTR,A
0BEF                6783     ?C0600:
0BEF 900000   F     6784             MOV     DPTR,#DL
0BF2 E0             6785             MOVX    A,@DPTR
0BF3 14             6786             DEC     A
0BF4 F0             6787             MOVX    @DPTR,A
0BF5 E0             6788             MOVX    A,@DPTR
0BF6 70F7           6789             JNZ     ?C0600
0BF8                6790     ?C0601:
0BF8 D2ED           6791             SETB    MCO
0BFA 900000   F     6792             MOV     DPTR,#DL
0BFD 7402           6793             MOV     A,#02H
0BFF F0             6794             MOVX    @DPTR,A
0C00                6795     ?C0603:
0C00 900000   F     6796             MOV     DPTR,#DL
0C03 E0             6797             MOVX    A,@DPTR
0C04 14             6798             DEC     A
0C05 F0             6799             MOVX    @DPTR,A
0C06 E0             6800             MOVX    A,@DPTR
0C07 70F7           6801             JNZ     ?C0603
0C09                6802     ?C0604:
0C09 D2EF           6803             SETB    MDO
0C0B 900000   F     6804             MOV     DPTR,#DL
0C0E 7402           6805             MOV     A,#02H
0C10 F0             6806             MOVX    @DPTR,A
0C11                6807     ?C0606:
0C11 900000   F     6808             MOV     DPTR,#DL
0C14 E0             6809             MOVX    A,@DPTR
0C15 14             6810             DEC     A
0C16 F0             6811             MOVX    @DPTR,A
0C17 E0             6812             MOVX    A,@DPTR
0C18 70F7           6813             JNZ     ?C0606
0C1A                6814     ?C0607:
0C1A 7500D1   F     6815             MOV     wadc,#0D1H
0C1D 900000   F     6816             MOV     DPTR,#DL
0C20 7402           6817             MOV     A,#02H
A51 MACRO ASSEMBLER  MAIN_BKCD                                                            12/02/2009 12:07:33 PAGE   105

0C22 F0             6818             MOVX    @DPTR,A
0C23                6819     ?C0609:
0C23 900000   F     6820             MOV     DPTR,#DL
0C26 E0             6821             MOVX    A,@DPTR
0C27 14             6822             DEC     A
0C28 F0             6823             MOVX    @DPTR,A
0C29 E0             6824             MOVX    A,@DPTR
0C2A 70F7           6825             JNZ     ?C0609
0C2C                6826     ?C0610:
0C2C C2EF           6827             CLR     MDO
0C2E 900000   F     6828             MOV     DPTR,#DL
0C31 7402           6829             MOV     A,#02H
0C33 F0             6830             MOVX    @DPTR,A
0C34                6831     ?C0612:
0C34 900000   F     6832             MOV     DPTR,#DL
0C37 E0             6833             MOVX    A,@DPTR
0C38 14             6834             DEC     A
0C39 F0             6835             MOVX    @DPTR,A
0C3A E0             6836             MOVX    A,@DPTR
0C3B 70F7           6837             JNZ     ?C0612
0C3D                6838     ?C0613:
0C3D C2ED           6839             CLR     MCO
0C3F 900000   F     6840             MOV     DPTR,#DL
0C42 7402           6841             MOV     A,#02H
0C44 F0             6842             MOVX    @DPTR,A
0C45                6843     ?C0615:
0C45 900000   F     6844             MOV     DPTR,#DL
0C48 E0             6845             MOVX    A,@DPTR
0C49 14             6846             DEC     A
0C4A F0             6847             MOVX    @DPTR,A
0C4B E0             6848             MOVX    A,@DPTR
0C4C 70F7           6849             JNZ     ?C0615
0C4E                6850     ?C0616:
0C4E E4             6851             CLR     A
0C4F F500     F     6852             MOV     i1,A
0C51                6853     ?C0618:
0C51 E500     F     6854             MOV     A,wadc
0C53 20E704         6855             JB      ACC.7,?C0621
0C56 C2EF           6856             CLR     MDO
0C58 8002           6857             SJMP    ?C0622
0C5A                6858     ?C0621:
0C5A D2EF           6859             SETB    MDO
0C5C                6860     ?C0622:
0C5C 900000   F     6861             MOV     DPTR,#DL
0C5F 7402           6862             MOV     A,#02H
0C61 F0             6863             MOVX    @DPTR,A
0C62                6864     ?C0623:
0C62 900000   F     6865             MOV     DPTR,#DL
0C65 E0             6866             MOVX    A,@DPTR
0C66 14             6867             DEC     A
0C67 F0             6868             MOVX    @DPTR,A
0C68 E0             6869             MOVX    A,@DPTR
0C69 70F7           6870             JNZ     ?C0623
0C6B                6871     ?C0624:
0C6B D2ED           6872             SETB    MCO
0C6D 900000   F     6873             MOV     DPTR,#DL
0C70 7402           6874             MOV     A,#02H
0C72 F0             6875             MOVX    @DPTR,A
0C73                6876     ?C0626:
0C73 900000   F     6877             MOV     DPTR,#DL
0C76 E0             6878             MOVX    A,@DPTR
0C77 14             6879             DEC     A
0C78 F0             6880             MOVX    @DPTR,A
0C79 E0             6881             MOVX    A,@DPTR
0C7A 70F7           6882             JNZ     ?C0626
0C7C                6883     ?C0627:
A51 MACRO ASSEMBLER  MAIN_BKCD                                                            12/02/2009 12:07:33 PAGE   106

0C7C C2ED           6884             CLR     MCO
0C7E C2EF           6885             CLR     MDO
0C80 E500     F     6886             MOV     A,wadc
0C82 25E0           6887             ADD     A,ACC
0C84 F500     F     6888             MOV     wadc,A
0C86 0500     F     6889             INC     i1
0C88 E500     F     6890             MOV     A,i1
0C8A B408C4         6891             CJNE    A,#08H,?C0618
0C8D                6892     ?C0619:
0C8D 900000   F     6893             MOV     DPTR,#DL
0C90 7402           6894             MOV     A,#02H
0C92 F0             6895             MOVX    @DPTR,A
0C93                6896     ?C0629:
0C93 900000   F     6897             MOV     DPTR,#DL
0C96 E0             6898             MOVX    A,@DPTR
0C97 14             6899             DEC     A
0C98 F0             6900             MOVX    @DPTR,A
0C99 E0             6901             MOVX    A,@DPTR
0C9A 70F7           6902             JNZ     ?C0629
0C9C                6903     ?C0630:
0C9C D2ED           6904             SETB    MCO
0C9E 900000   F     6905             MOV     DPTR,#DL
0CA1 7402           6906             MOV     A,#02H
0CA3 F0             6907             MOVX    @DPTR,A
0CA4                6908     ?C0632:
0CA4 900000   F     6909             MOV     DPTR,#DL
0CA7 E0             6910             MOVX    A,@DPTR
0CA8 14             6911             DEC     A
0CA9 F0             6912             MOVX    @DPTR,A
0CAA E0             6913             MOVX    A,@DPTR
0CAB 70F7           6914             JNZ     ?C0632
0CAD                6915     ?C0633:
0CAD C2ED           6916             CLR     MCO
0CAF 900000   F     6917             MOV     DPTR,#DL
0CB2 7402           6918             MOV     A,#02H
0CB4 F0             6919             MOVX    @DPTR,A
0CB5                6920     ?C0635:
0CB5 900000   F     6921             MOV     DPTR,#DL
0CB8 E0             6922             MOVX    A,@DPTR
0CB9 14             6923             DEC     A
0CBA F0             6924             MOVX    @DPTR,A
0CBB E0             6925             MOVX    A,@DPTR
0CBC 70F7           6926             JNZ     ?C0635
0CBE                6927     ?C0636:
0CBE E4             6928             CLR     A
0CBF 7800     F     6929             MOV     R0,#LOW (j)
0CC1 F6             6930             MOV     @R0,A
0CC2                6931     ?C0638:
0CC2 7800     F     6932             MOV     R0,#LOW (j)
0CC4 E6             6933             MOV     A,@R0
0CC5 C3             6934             CLR     C
0CC6 9500     F     6935             SUBB    A,zbuf+09H
0CC8 4003           6936             JC      $ + 5H
0CCA 020000   F     6937             LJMP    ?C0639
0CCD E4             6938             CLR     A
0CCE F500     F     6939             MOV     i1,A
0CD0                6940     ?C0641:
0CD0 C2EE           6941             CLR     MDE
0CD2 D2ED           6942             SETB    MCO
0CD4 D2EF           6943             SETB    MDO
0CD6 900000   F     6944             MOV     DPTR,#DL
0CD9 7402           6945             MOV     A,#02H
0CDB F0             6946             MOVX    @DPTR,A
0CDC                6947     ?C0644:
0CDC 900000   F     6948             MOV     DPTR,#DL
0CDF E0             6949             MOVX    A,@DPTR
A51 MACRO ASSEMBLER  MAIN_BKCD                                                            12/02/2009 12:07:33 PAGE   107

0CE0 14             6950             DEC     A
0CE1 F0             6951             MOVX    @DPTR,A
0CE2 E0             6952             MOVX    A,@DPTR
0CE3 70F7           6953             JNZ     ?C0644
0CE5                6954     ?C0645:
0CE5 7800     F     6955             MOV     R0,#LOW (j)
0CE7 E6             6956             MOV     A,@R0
0CE8 20EC0D         6957             JB      MDI,?C0647
0CEB 2400     F     6958             ADD     A,#LOW (adcbuf)
0CED F8             6959             MOV     R0,A
0CEE C000           6960             PUSH    AR0
0CF0 E6             6961             MOV     A,@R0
0CF1 25E0           6962             ADD     A,ACC
0CF3 D000           6963             POP     AR0
0CF5 F6             6964             MOV     @R0,A
0CF6 8014           6965             SJMP    ?C0648
0CF8                6966     ?C0647:
0CF8 FF             6967             MOV     R7,A
0CF9 2400     F     6968             ADD     A,#LOW (adcbuf)
0CFB F8             6969             MOV     R0,A
0CFC C000           6970             PUSH    AR0
0CFE E6             6971             MOV     A,@R0
0CFF 25E0           6972             ADD     A,ACC
0D01 D000           6973             POP     AR0
0D03 F6             6974             MOV     @R0,A
0D04 7400     F     6975             MOV     A,#LOW (adcbuf)
0D06 2F             6976             ADD     A,R7
0D07 F8             6977             MOV     R0,A
0D08 7401           6978             MOV     A,#01H
0D0A 46             6979             ORL     A,@R0
0D0B F6             6980             MOV     @R0,A
0D0C                6981     ?C0648:
0D0C D2EE           6982             SETB    MDE
0D0E C2ED           6983             CLR     MCO
0D10 900000   F     6984             MOV     DPTR,#DL
0D13 7402           6985             MOV     A,#02H
0D15 F0             6986             MOVX    @DPTR,A
0D16                6987     ?C0649:
0D16 900000   F     6988             MOV     DPTR,#DL
0D19 E0             6989             MOVX    A,@DPTR
0D1A 14             6990             DEC     A
0D1B F0             6991             MOVX    @DPTR,A
0D1C E0             6992             MOVX    A,@DPTR
0D1D 70F7           6993             JNZ     ?C0649
0D1F                6994     ?C0643:
0D1F 0500     F     6995             INC     i1
0D21 E500     F     6996             MOV     A,i1
0D23 B408AA         6997             CJNE    A,#08H,?C0641
0D26                6998     ?C0642:
0D26 900000   F     6999             MOV     DPTR,#DL
0D29 7402           7000             MOV     A,#02H
0D2B F0             7001             MOVX    @DPTR,A
0D2C                7002     ?C0652:
0D2C 900000   F     7003             MOV     DPTR,#DL
0D2F E0             7004             MOVX    A,@DPTR
0D30 14             7005             DEC     A
0D31 F0             7006             MOVX    @DPTR,A
0D32 E0             7007             MOVX    A,@DPTR
0D33 70F7           7008             JNZ     ?C0652
0D35                7009     ?C0653:
0D35 C2EF           7010             CLR     MDO
0D37 E500     F     7011             MOV     A,zbuf+09H
0D39 14             7012             DEC     A
0D3A 7800     F     7013             MOV     R0,#LOW (j)
0D3C 66             7014             XRL     A,@R0
0D3D 7002           7015             JNZ     ?C0655
A51 MACRO ASSEMBLER  MAIN_BKCD                                                            12/02/2009 12:07:33 PAGE   108

0D3F D2EF           7016             SETB    MDO
0D41                7017     ?C0655:
0D41 900000   F     7018             MOV     DPTR,#DL
0D44 7402           7019             MOV     A,#02H
0D46 F0             7020             MOVX    @DPTR,A
0D47                7021     ?C0656:
0D47 900000   F     7022             MOV     DPTR,#DL
0D4A E0             7023             MOVX    A,@DPTR
0D4B 14             7024             DEC     A
0D4C F0             7025             MOVX    @DPTR,A
0D4D E0             7026             MOVX    A,@DPTR
0D4E 70F7           7027             JNZ     ?C0656
0D50                7028     ?C0657:
0D50 D2ED           7029             SETB    MCO
0D52 900000   F     7030             MOV     DPTR,#DL
0D55 7402           7031             MOV     A,#02H
0D57 F0             7032             MOVX    @DPTR,A
0D58                7033     ?C0659:
0D58 900000   F     7034             MOV     DPTR,#DL
0D5B E0             7035             MOVX    A,@DPTR
0D5C 14             7036             DEC     A
0D5D F0             7037             MOVX    @DPTR,A
0D5E E0             7038             MOVX    A,@DPTR
0D5F 70F7           7039             JNZ     ?C0659
0D61                7040     ?C0660:
0D61 C2ED           7041             CLR     MCO
0D63 900000   F     7042             MOV     DPTR,#DL
0D66 7402           7043             MOV     A,#02H
0D68 F0             7044             MOVX    @DPTR,A
0D69                7045     ?C0662:
0D69 900000   F     7046             MOV     DPTR,#DL
0D6C E0             7047             MOVX    A,@DPTR
0D6D 14             7048             DEC     A
0D6E F0             7049             MOVX    @DPTR,A
0D6F E0             7050             MOVX    A,@DPTR
0D70 70F7           7051             JNZ     ?C0662
0D72                7052     ?C0640:
0D72 7800     F     7053             MOV     R0,#LOW (j)
0D74 06             7054             INC     @R0
0D75 020000   F     7055             LJMP    ?C0638
0D78                7056     ?C0639:
0D78 D2EE           7057             SETB    MDE
0D7A 900000   F     7058             MOV     DPTR,#DL
0D7D 7402           7059             MOV     A,#02H
0D7F F0             7060             MOVX    @DPTR,A
0D80                7061     ?C0665:
0D80 900000   F     7062             MOV     DPTR,#DL
0D83 E0             7063             MOVX    A,@DPTR
0D84 14             7064             DEC     A
0D85 F0             7065             MOVX    @DPTR,A
0D86 E0             7066             MOVX    A,@DPTR
0D87 70F7           7067             JNZ     ?C0665
0D89                7068     ?C0666:
0D89 C2EF           7069             CLR     MDO
0D8B 900000   F     7070             MOV     DPTR,#DL
0D8E 7402           7071             MOV     A,#02H
0D90 F0             7072             MOVX    @DPTR,A
0D91                7073     ?C0668:
0D91 900000   F     7074             MOV     DPTR,#DL
0D94 E0             7075             MOVX    A,@DPTR
0D95 14             7076             DEC     A
0D96 F0             7077             MOVX    @DPTR,A
0D97 E0             7078             MOVX    A,@DPTR
0D98 70F7           7079             JNZ     ?C0668
0D9A                7080     ?C0669:
0D9A D2ED           7081             SETB    MCO
A51 MACRO ASSEMBLER  MAIN_BKCD                                                            12/02/2009 12:07:33 PAGE   109

0D9C 900000   F     7082             MOV     DPTR,#DL
0D9F 7402           7083             MOV     A,#02H
0DA1 F0             7084             MOVX    @DPTR,A
0DA2                7085     ?C0671:
0DA2 900000   F     7086             MOV     DPTR,#DL
0DA5 E0             7087             MOVX    A,@DPTR
0DA6 14             7088             DEC     A
0DA7 F0             7089             MOVX    @DPTR,A
0DA8 E0             7090             MOVX    A,@DPTR
0DA9 70F7           7091             JNZ     ?C0671
0DAB                7092     ?C0672:
0DAB D2EF           7093             SETB    MDO
                    7094     ;                                               if(wadc1==0x10) {K_PAH=zbuf[12];}
                    7095                             ; SOURCE LINE # 1144
0DAD E500     F     7096             MOV     A,wadc1
0DAF B41006         7097             CJNE    A,#010H,?C0674
0DB2 900000   F     7098             MOV     DPTR,#K_PAH
0DB5 E500     F     7099             MOV     A,zbuf+0CH
0DB7 F0             7100             MOVX    @DPTR,A
0DB8                7101     ?C0674:
                    7102     ;                                       //while(t==1);
                    7103     ;                                               for (j=0;j<zbuf[9];j++)
                    7104                             ; SOURCE LINE # 1146
0DB8 E4             7105             CLR     A
0DB9 7800     F     7106             MOV     R0,#LOW (j)
0DBB F6             7107             MOV     @R0,A
0DBC                7108     ?C0675:
0DBC 7800     F     7109             MOV     R0,#LOW (j)
0DBE E6             7110             MOV     A,@R0
0DBF C3             7111             CLR     C
0DC0 9500     F     7112             SUBB    A,zbuf+09H
0DC2 5018           7113             JNC     ?C0676
                    7114     ;                                               {
                    7115                             ; SOURCE LINE # 1147
                    7116     ;                                               bufout[10+j]=adcbuf[j];
                    7117                             ; SOURCE LINE # 1148
0DC4 E6             7118             MOV     A,@R0
0DC5 FF             7119             MOV     R7,A
0DC6 2400     F     7120             ADD     A,#LOW (adcbuf)
0DC8 F8             7121             MOV     R0,A
0DC9 E6             7122             MOV     A,@R0
0DCA FE             7123             MOV     R6,A
0DCB 744A           7124             MOV     A,#LOW (bufout+0AH)
0DCD 2F             7125             ADD     A,R7
0DCE F582           7126             MOV     DPL,A
0DD0 E4             7127             CLR     A
0DD1 3400           7128             ADDC    A,#HIGH (bufout+0AH)
0DD3 F583           7129             MOV     DPH,A
0DD5 EE             7130             MOV     A,R6
0DD6 F0             7131             MOVX    @DPTR,A
                    7132     ;                                       }
                    7133                             ; SOURCE LINE # 1149
0DD7 7800     F     7134             MOV     R0,#LOW (j)
0DD9 06             7135             INC     @R0
0DDA 80E0           7136             SJMP    ?C0675
0DDC                7137     ?C0676:
                    7138     ;                                       bufout[6]=zbuf[6];bufout[7]=zbuf[7];bufout[8]=zbuf[
                             8];
                    7139                             ; SOURCE LINE # 1150
0DDC 900046         7140             MOV     DPTR,#bufout+06H
0DDF E500     F     7141             MOV     A,zbuf+06H
0DE1 F0             7142             MOVX    @DPTR,A
0DE2 A3             7143             INC     DPTR
0DE3 E500     F     7144             MOV     A,zbuf+07H
0DE5 F0             7145             MOVX    @DPTR,A
0DE6 A3             7146             INC     DPTR
A51 MACRO ASSEMBLER  MAIN_BKCD                                                            12/02/2009 12:07:33 PAGE   110

0DE7 E500     F     7147             MOV     A,zbuf+08H
0DE9 F0             7148             MOVX    @DPTR,A
                    7149     ;                                       bufout[9]=zbuf[9];
                    7150                             ; SOURCE LINE # 1151
0DEA A3             7151             INC     DPTR
0DEB E500     F     7152             MOV     A,zbuf+09H
0DED F0             7153             MOVX    @DPTR,A
                    7154     ;                                       zbuf[5]=zbuf[9]+4;len=6+zbuf[5];
                    7155                             ; SOURCE LINE # 1152
0DEE 2404           7156             ADD     A,#04H
0DF0 F500     F     7157             MOV     zbuf+05H,A
0DF2 2406           7158             ADD     A,#06H
0DF4 F500     F     7159             MOV     len,A
                    7160     ;                                       }
                    7161                             ; SOURCE LINE # 1153
                    7162     ;                               }
                    7163                             ; SOURCE LINE # 1154
                    7164     ;            }
                    7165                             ; SOURCE LINE # 1155
0DF6                7166     ?C0540:
                    7167     ; 
                    7168     ;   
                    7169     ; 
                    7170     ;                //конец ао флагу 21 аналога адц 20
                    7171     ;        len_o=zbuf[5]+6;
                    7172                             ; SOURCE LINE # 1160
0DF6 E500     F     7173             MOV     A,zbuf+05H
0DF8 2406           7174             ADD     A,#06H
0DFA F500     F     7175             MOV     len_o,A
                    7176     ;        bufout[2]=len_o+1;
                    7177                             ; SOURCE LINE # 1161
0DFC 04             7178             INC     A
0DFD 900042         7179             MOV     DPTR,#bufout+02H
0E00 F0             7180             MOVX    @DPTR,A
                    7181     ;       }
                    7182                             ; SOURCE LINE # 1162
0E01                7183     ?C0299:
                    7184     ; 
                    7185     ; 
                    7186     ;  #pragma asm
                    7187     ;       POP PSW
0E01 D0D0           7188               POP PSW
                    7189     ;       POP DPL
0E03 D082           7190               POP DPL
                    7191     ;       POP DPH
0E05 D083           7192               POP DPH
                    7193     ;       POP B
0E07 D0F0           7194               POP B
                    7195     ;       POP ACC
0E09 D0E0           7196               POP ACC
                    7197     ; #pragma endasm
                    7198     ;  
                    7199     ; return;
                    7200     ; }
                    7201                             ; SOURCE LINE # 1174
0E0B                7202     ?C0678:
0E0B 22             7203             RET     
                    7204     ; END OF kmd
                    7205     
                    7206     ; 
                    7207     ; 
                    7208     ; 
                    7209     ; /*************** MAIN ************/
                    7210     ; 
                    7211     ; void main (void) using 0 
                    7212     
A51 MACRO ASSEMBLER  MAIN_BKCD                                                            12/02/2009 12:07:33 PAGE   111

----                7213             RSEG  ?PR?main?MAIN_BKCD
0000                7214     main:
                    7215             USING   0
0000 C0D0           7216             PUSH    PSW
0002 75D000         7217             MOV     PSW,#00H
                    7218                             ; SOURCE LINE # 1180
                    7219     ; {
                    7220     ; 
                    7221     ;   
                    7222     ;  CFG848=0x81;
                    7223                             ; SOURCE LINE # 1184
0005 75AF81         7224             MOV     CFG848,#081H
                    7225     ;  EA=0;
                    7226                             ; SOURCE LINE # 1185
0008 C2AF           7227             CLR     EA
                    7228     ;  if (WDS==1)
                    7229                             ; SOURCE LINE # 1186
000A 30C207         7230             JNB     WDS,?C0679
                    7231     ;  {
                    7232                             ; SOURCE LINE # 1187
                    7233     ;       EA=0;
                    7234                             ; SOURCE LINE # 1188
000D C2AF           7235             CLR     EA
                    7236     ;       WDWR=1;
                    7237                             ; SOURCE LINE # 1189
000F D2C0           7238             SETB    WDWR
                    7239     ;       WDCON=0x10;
                    7240                             ; SOURCE LINE # 1190
0011 75C010         7241             MOV     WDCON,#010H
                    7242     ; 
                    7243     ;  }
                    7244                             ; SOURCE LINE # 1192
0014                7245     ?C0679:
                    7246     ; VR_P=0;
                    7247                             ; SOURCE LINE # 1193
0014 900000   F     7248             MOV     DPTR,#VR_P
0017 120000   F     7249             LCALL   ?C?LSTKXDATA
001A 00             7250             DB      00H
001B 00             7251             DB      00H
001C 00             7252             DB      00H
001D 00             7253             DB      00H
                    7254     ; 
                    7255     ; 
                    7256     ; kon_t=1; 
                    7257                             ; SOURCE LINE # 1196
001E D200     F     7258             SETB    kon_t
                    7259     ; nro=1;  
                    7260                             ; SOURCE LINE # 1197
0020 7800     F     7261             MOV     R0,#LOW (nro)
0022 7601           7262             MOV     @R0,#01H
                    7263     ; WR=0;  
                    7264                             ; SOURCE LINE # 1198
0024 C2B6           7265             CLR     WR
                    7266     ;  
                    7267     ; 
                    7268     ; setup();
                    7269                             ; SOURCE LINE # 1201
0026 120000   F     7270             LCALL   setup
                    7271     ; setup_ADC() ;
                    7272                             ; SOURCE LINE # 1202
0029 120000   F     7273             LCALL   setup_ADC
                    7274     ; FUM_Epr1_Rd((T_LADR1-0x100)>>2)
                    7275                             ; SOURCE LINE # 1203
002C C2AF           7276             CLR     EA
002E E4             7277             CLR     A
002F F5C7           7278             MOV     EADRH,A
A51 MACRO ASSEMBLER  MAIN_BKCD                                                            12/02/2009 12:07:33 PAGE   112

0031 75C607         7279             MOV     EADRL,#07H
0034 75B901         7280             MOV     ECON,#01H
0037 F5C7           7281             MOV     EADRH,A
0039 D2AF           7282             SETB    EA
                    7283     ; TM_LINE=EDATA2;
                    7284                             ; SOURCE LINE # 1204
003B 7800     F     7285             MOV     R0,#LOW (TM_LINE)
003D A6BD           7286             MOV     @R0,EDATA2
                    7287     ; if ((TM_LINE==0xFF)|(TM_LINE==0x00))
                    7288                             ; SOURCE LINE # 1205
003F E6             7289             MOV     A,@R0
0040 FF             7290             MOV     R7,A
0041 7004           7291             JNZ     ?C0681
0043 7E01           7292             MOV     R6,#01H
0045 8002           7293             SJMP    ?C0682
0047                7294     ?C0681:
0047 7E00           7295             MOV     R6,#00H
0049                7296     ?C0682:
0049 EF             7297             MOV     A,R7
004A B4FF04         7298             CJNE    A,#0FFH,?C0683
004D 7F01           7299             MOV     R7,#01H
004F 8002           7300             SJMP    ?C0684
0051                7301     ?C0683:
0051 7F00           7302             MOV     R7,#00H
0053                7303     ?C0684:
0053 EF             7304             MOV     A,R7
0054 4E             7305             ORL     A,R6
0055 6004           7306             JZ      ?C0680
                    7307     ;       {TM_LINE=1;}
                    7308                             ; SOURCE LINE # 1206
0057 7800     F     7309             MOV     R0,#LOW (TM_LINE)
0059 7601           7310             MOV     @R0,#01H
005B                7311     ?C0680:
                    7312     ; 
                    7313     ; 
                    7314     ; FUM_Epr1_Rd((LADR1-0x100)>>2)                                         
                    7315                             ; SOURCE LINE # 1209
005B C2AF           7316             CLR     EA
005D E4             7317             CLR     A
005E F5C7           7318             MOV     EADRH,A
0060 75C606         7319             MOV     EADRL,#06H
0063 75B901         7320             MOV     ECON,#01H
0066 F5C7           7321             MOV     EADRH,A
0068 D2AF           7322             SETB    EA
                    7323     ; lineadd=EDATA1;
                    7324                             ; SOURCE LINE # 1210
006A 85BC00   F     7325             MOV     lineadd,EDATA1
                    7326     ; if (lineadd==0xFF)
                    7327                             ; SOURCE LINE # 1211
006D E500     F     7328             MOV     A,lineadd
006F B4FF03         7329             CJNE    A,#0FFH,?C0685
                    7330     ;       {lineadd=0x3F;}
                    7331                             ; SOURCE LINE # 1212
0072 75003F   F     7332             MOV     lineadd,#03FH
0075                7333     ?C0685:
                    7334     ;               
                    7335     ; 
                    7336     ; 
                    7337     ; 
                    7338     ; FUM_Epr1_Rd((LADR2-0x100)>>2)
                    7339                             ; SOURCE LINE # 1217
0075 C2AF           7340             CLR     EA
0077 E4             7341             CLR     A
0078 F5C7           7342             MOV     EADRH,A
007A 75C606         7343             MOV     EADRL,#06H
007D 75B901         7344             MOV     ECON,#01H
A51 MACRO ASSEMBLER  MAIN_BKCD                                                            12/02/2009 12:07:33 PAGE   113

0080 F5C7           7345             MOV     EADRH,A
0082 D2AF           7346             SETB    EA
                    7347     ; 
                    7348     ; lineadd_o=EDATA4;
                    7349                             ; SOURCE LINE # 1219
0084 900000   F     7350             MOV     DPTR,#lineadd_o
0087 E5BF           7351             MOV     A,EDATA4
0089 F0             7352             MOVX    @DPTR,A
                    7353     ; s_otv=EDATA3;
                    7354                             ; SOURCE LINE # 1220
008A 900000   F     7355             MOV     DPTR,#s_otv
008D E5BE           7356             MOV     A,EDATA3
008F F0             7357             MOVX    @DPTR,A
                    7358     ; 
                    7359     ; //lineadd_o=0xFF;
                    7360     ; //s_otv=0x40;
                    7361     ; //tms=0xFF;
                    7362     ; if ((lineadd_o==0xFF)&(s_otv!=0xFF))
                    7363                             ; SOURCE LINE # 1225
0090 900000   F     7364             MOV     DPTR,#lineadd_o
0093 E0             7365             MOVX    A,@DPTR
0094 B4FF04         7366             CJNE    A,#0FFH,?C0687
0097 7F01           7367             MOV     R7,#01H
0099 8002           7368             SJMP    ?C0688
009B                7369     ?C0687:
009B 7F00           7370             MOV     R7,#00H
009D                7371     ?C0688:
009D 900000   F     7372             MOV     DPTR,#s_otv
00A0 E0             7373             MOVX    A,@DPTR
00A1 F4             7374             CPL     A
00A2 6004           7375             JZ      ?C0689
00A4 7E01           7376             MOV     R6,#01H
00A6 8002           7377             SJMP    ?C0690
00A8                7378     ?C0689:
00A8 7E00           7379             MOV     R6,#00H
00AA                7380     ?C0690:
00AA EE             7381             MOV     A,R6
00AB 5F             7382             ANL     A,R7
00AC 600D           7383             JZ      ?C0686
                    7384     ;       {
                    7385                             ; SOURCE LINE # 1226
                    7386     ;               tms=s_otv+s_otv;
                    7387                             ; SOURCE LINE # 1227
00AE 900000   F     7388             MOV     DPTR,#s_otv
00B1 E0             7389             MOVX    A,@DPTR
00B2 FF             7390             MOV     R7,A
00B3 2F             7391             ADD     A,R7
00B4 7800     F     7392             MOV     R0,#LOW (tms)
00B6 F6             7393             MOV     @R0,A
                    7394     ;               tms=0xFF;
                    7395                             ; SOURCE LINE # 1228
00B7 76FF           7396             MOV     @R0,#0FFH
                    7397     ;       }
                    7398                             ; SOURCE LINE # 1229
00B9 8004           7399             SJMP    ?C0691
00BB                7400     ?C0686:
                    7401     ; else 
                    7402     ;       {tms=0xFF;}
                    7403                             ; SOURCE LINE # 1231
00BB 7800     F     7404             MOV     R0,#LOW (tms)
00BD 76FF           7405             MOV     @R0,#0FFH
00BF                7406     ?C0691:
                    7407     ; //tms=0x80;                   
                    7408     ; 
                    7409     ; 
                    7410     ; 
A51 MACRO ASSEMBLER  MAIN_BKCD                                                            12/02/2009 12:07:33 PAGE   114

                    7411     ; FUM_Epr1_Rd((0x110-0x100)>>2);
                    7412                             ; SOURCE LINE # 1236
00BF C2AF           7413             CLR     EA
00C1 E4             7414             CLR     A
00C2 F5C7           7415             MOV     EADRH,A
00C4 75C604         7416             MOV     EADRL,#04H
00C7 75B901         7417             MOV     ECON,#01H
00CA F5C7           7418             MOV     EADRH,A
00CC D2AF           7419             SETB    EA
                    7420     ; dl_p=EDATA1;
                    7421                             ; SOURCE LINE # 1237
00CE 900000   F     7422             MOV     DPTR,#dl_p
00D1 E5BC           7423             MOV     A,EDATA1
00D3 F0             7424             MOVX    @DPTR,A
                    7425     ; dl_p=0xFF;
                    7426                             ; SOURCE LINE # 1238
00D4 74FF           7427             MOV     A,#0FFH
00D6 F0             7428             MOVX    @DPTR,A
                    7429     ; if (EDATA1==0xFF)
                    7430                             ; SOURCE LINE # 1239
00D7 B5BC03         7431             CJNE    A,EDATA1,?C0692
                    7432     ;       {dl_p=28;}
                    7433                             ; SOURCE LINE # 1240
00DA 741C           7434             MOV     A,#01CH
00DC F0             7435             MOVX    @DPTR,A
00DD                7436     ?C0692:
                    7437     ; 
                    7438     ; HOUR=0;
                    7439                             ; SOURCE LINE # 1242
00DD E4             7440             CLR     A
00DE F5A5           7441             MOV     HOUR,A
                    7442     ; MIN=0;
                    7443                             ; SOURCE LINE # 1243
00E0 F5A4           7444             MOV     MIN,A
                    7445     ; SEC=0;
                    7446                             ; SOURCE LINE # 1244
00E2 F5A3           7447             MOV     SEC,A
                    7448     ; HTHSEC=0;
                    7449                             ; SOURCE LINE # 1245
00E4 F5A2           7450             MOV     HTHSEC,A
                    7451     ; ob_par=0xFF;
                    7452                             ; SOURCE LINE # 1246
00E6 900000   F     7453             MOV     DPTR,#ob_par
00E9 74FF           7454             MOV     A,#0FFH
00EB F0             7455             MOVX    @DPTR,A
                    7456     ; 
                    7457     ; 
                    7458     ; 
                    7459     ; TH1=R_INT_TMR1_H;
                    7460                             ; SOURCE LINE # 1250
00EC 758DE7         7461             MOV     TH1,#0E7H
                    7462     ; TL1=R_INT_TMR1_L;
                    7463                             ; SOURCE LINE # 1251
00EF 758BC0         7464             MOV     TL1,#0C0H
                    7465     ; 
                    7466     ;       for(i1=0;i1<zadc;i1++)
                    7467                             ; SOURCE LINE # 1253
00F2 E4             7468             CLR     A
00F3 F500     F     7469             MOV     i1,A
00F5                7470     ?C0693:
00F5 E500     F     7471             MOV     A,i1
00F7 C3             7472             CLR     C
00F8 7800     F     7473             MOV     R0,#LOW (zadc)
00FA 96             7474             SUBB    A,@R0
00FB 504B           7475             JNC     ?C0694
                    7476     ;     {
A51 MACRO ASSEMBLER  MAIN_BKCD                                                            12/02/2009 12:07:33 PAGE   115

                    7477                             ; SOURCE LINE # 1254
                    7478     ;                if (Str_CH_A[i1].R_IZM==0x88)
                    7479                             ; SOURCE LINE # 1255
00FD E500     F     7480             MOV     A,i1
00FF C4             7481             SWAP    A
0100 54F0           7482             ANL     A,#0F0H
0102 2400     F     7483             ADD     A,#LOW (Str_CH_A+01H)
0104 F582           7484             MOV     DPL,A
0106 E4             7485             CLR     A
0107 3400     F     7486             ADDC    A,#HIGH (Str_CH_A+01H)
0109 F583           7487             MOV     DPH,A
010B E0             7488             MOVX    A,@DPTR
010C FF             7489             MOV     R7,A
010D B48818         7490             CJNE    A,#088H,?C0696
                    7491     ;                {      A_N1= Str_CH_A[i1].KF_KORZ1;
                    7492                             ; SOURCE LINE # 1256
0110 E500     F     7493             MOV     A,i1
0112 C4             7494             SWAP    A
0113 54F0           7495             ANL     A,#0F0H
0115 2400     F     7496             ADD     A,#LOW (Str_CH_A+0EH)
0117 F582           7497             MOV     DPL,A
0119 E4             7498             CLR     A
011A 3400     F     7499             ADDC    A,#HIGH (Str_CH_A+0EH)
011C F583           7500             MOV     DPH,A
011E E0             7501             MOVX    A,@DPTR
011F FC             7502             MOV     R4,A
0120 A3             7503             INC     DPTR
0121 E0             7504             MOVX    A,@DPTR
0122 7800     F     7505             MOV     R0,#LOW (A_N1)
0124 A604           7506             MOV     @R0,AR4
0126 08             7507             INC     R0
0127 F6             7508             MOV     @R0,A
                    7509     ;                }
                    7510                             ; SOURCE LINE # 1257
0128                7511     ?C0696:
                    7512     ;       
                    7513     ;                if (Str_CH_A[i1].R_IZM==0x84)
                    7514                             ; SOURCE LINE # 1259
0128 EF             7515             MOV     A,R7
0129 B48418         7516             CJNE    A,#084H,?C0695
                    7517     ;                {      A_N2= Str_CH_A[i1].KF_KORZ1;
                    7518                             ; SOURCE LINE # 1260
012C E500     F     7519             MOV     A,i1
012E C4             7520             SWAP    A
012F 54F0           7521             ANL     A,#0F0H
0131 2400     F     7522             ADD     A,#LOW (Str_CH_A+0EH)
0133 F582           7523             MOV     DPL,A
0135 E4             7524             CLR     A
0136 3400     F     7525             ADDC    A,#HIGH (Str_CH_A+0EH)
0138 F583           7526             MOV     DPH,A
013A E0             7527             MOVX    A,@DPTR
013B FE             7528             MOV     R6,A
013C A3             7529             INC     DPTR
013D E0             7530             MOVX    A,@DPTR
013E 7800     F     7531             MOV     R0,#LOW (A_N2)
0140 A606           7532             MOV     @R0,AR6
0142 08             7533             INC     R0
0143 F6             7534             MOV     @R0,A
                    7535     ;                }
                    7536                             ; SOURCE LINE # 1261
                    7537     ;       }
                    7538                             ; SOURCE LINE # 1262
0144                7539     ?C0695:
0144 0500     F     7540             INC     i1
0146 80AD           7541             SJMP    ?C0693
0148                7542     ?C0694:
A51 MACRO ASSEMBLER  MAIN_BKCD                                                            12/02/2009 12:07:33 PAGE   116

                    7543     ; 
                    7544     ;       j=0;
                    7545                             ; SOURCE LINE # 1264
0148 E4             7546             CLR     A
0149 7800     F     7547             MOV     R0,#LOW (j)
014B F6             7548             MOV     @R0,A
                    7549     ;     j2=ZG_TABX_DAT[3]>>1;
                    7550                             ; SOURCE LINE # 1265
014C 900000   F     7551             MOV     DPTR,#ZG_TABX_DAT+03H
014F E0             7552             MOVX    A,@DPTR
0150 C3             7553             CLR     C
0151 13             7554             RRC     A
0152 7800     F     7555             MOV     R0,#LOW (j2)
0154 F6             7556             MOV     @R0,A
                    7557     ;       for(i1=0;i1<zadc;i1++)
                    7558                             ; SOURCE LINE # 1266
0155 E4             7559             CLR     A
0156 F500     F     7560             MOV     i1,A
0158                7561     ?C0698:
0158 E500     F     7562             MOV     A,i1
015A C3             7563             CLR     C
015B 7800     F     7564             MOV     R0,#LOW (zadc)
015D 96             7565             SUBB    A,@R0
015E 4003           7566             JC      $ + 5H
0160 020000   F     7567             LJMP    ?C0699
                    7568     ;     { 
                    7569                             ; SOURCE LINE # 1267
                    7570     ;               Str_CH_A[i1].KF_CRD=0xFF;       
                    7571                             ; SOURCE LINE # 1268
0163 E500     F     7572             MOV     A,i1
0165 C4             7573             SWAP    A
0166 54F0           7574             ANL     A,#0F0H
0168 2400     F     7575             ADD     A,#LOW (Str_CH_A+0AH)
016A F582           7576             MOV     DPL,A
016C E4             7577             CLR     A
016D 3400     F     7578             ADDC    A,#HIGH (Str_CH_A+0AH)
016F F583           7579             MOV     DPH,A
0171 74FF           7580             MOV     A,#0FFH
0173 F0             7581             MOVX    @DPTR,A
                    7582     ;               if (((Str_CH_A[i1].NAME_PAR&0x0F)==0x05))
                    7583                             ; SOURCE LINE # 1269
0174 E500     F     7584             MOV     A,i1
0176 C4             7585             SWAP    A
0177 54F0           7586             ANL     A,#0F0H
0179 2400     F     7587             ADD     A,#LOW (Str_CH_A)
017B F582           7588             MOV     DPL,A
017D E4             7589             CLR     A
017E 3400     F     7590             ADDC    A,#HIGH (Str_CH_A)
0180 F583           7591             MOV     DPH,A
0182 E0             7592             MOVX    A,@DPTR
0183 540F           7593             ANL     A,#0FH
0185 FF             7594             MOV     R7,A
0186 BF0510         7595             CJNE    R7,#05H,?C0701
                    7596     ;               {
                    7597                             ; SOURCE LINE # 1270
                    7598     ;                       buf_sh[j]=i1;
                    7599                             ; SOURCE LINE # 1271
0189 7800     F     7600             MOV     R0,#LOW (j)
018B E6             7601             MOV     A,@R0
018C 2400     F     7602             ADD     A,#LOW (buf_sh)
018E F582           7603             MOV     DPL,A
0190 E4             7604             CLR     A
0191 3400     F     7605             ADDC    A,#HIGH (buf_sh)
0193 F583           7606             MOV     DPH,A
0195 E500     F     7607             MOV     A,i1
0197 F0             7608             MOVX    @DPTR,A
A51 MACRO ASSEMBLER  MAIN_BKCD                                                            12/02/2009 12:07:33 PAGE   117

                    7609     ;                       j++;
                    7610                             ; SOURCE LINE # 1272
0198 06             7611             INC     @R0
                    7612     ;               }
                    7613                             ; SOURCE LINE # 1273
0199                7614     ?C0701:
                    7615     ;               for(j1=0;j1<j2;j1++)
                    7616                             ; SOURCE LINE # 1274
0199 E4             7617             CLR     A
019A 7800     F     7618             MOV     R0,#LOW (j1)
019C F6             7619             MOV     @R0,A
019D                7620     ?C0702:
019D 7800     F     7621             MOV     R0,#LOW (j1)
019F E6             7622             MOV     A,@R0
01A0 FF             7623             MOV     R7,A
01A1 C3             7624             CLR     C
01A2 08             7625             INC     R0
01A3 96             7626             SUBB    A,@R0
01A4 5046           7627             JNC     ?C0700
                    7628     ;               {
                    7629                             ; SOURCE LINE # 1275
                    7630     ;                if (Str_TDAT[j1].NAME_PAR==Str_CH_A[i1].NAME_PAR) 
                    7631                             ; SOURCE LINE # 1276
01A6 E500     F     7632             MOV     A,i1
01A8 C4             7633             SWAP    A
01A9 54F0           7634             ANL     A,#0F0H
01AB 2400     F     7635             ADD     A,#LOW (Str_CH_A)
01AD F582           7636             MOV     DPL,A
01AF E4             7637             CLR     A
01B0 3400     F     7638             ADDC    A,#HIGH (Str_CH_A)
01B2 F583           7639             MOV     DPH,A
01B4 E0             7640             MOVX    A,@DPTR
01B5 FE             7641             MOV     R6,A
01B6 EF             7642             MOV     A,R7
01B7 25E0           7643             ADD     A,ACC
01B9 24B4           7644             ADD     A,#LOW (Str_TDAT)
01BB F582           7645             MOV     DPL,A
01BD E4             7646             CLR     A
01BE 3407           7647             ADDC    A,#HIGH (Str_TDAT)
01C0 F583           7648             MOV     DPH,A
01C2 E0             7649             MOVX    A,@DPTR
01C3 B50621         7650             CJNE    A,AR6,?C0704
                    7651     ;                {
                    7652                             ; SOURCE LINE # 1277
                    7653     ;                          Str_CH_A[i1].KF_CRD=Str_TDAT[j1].ADR_RZ;
                    7654                             ; SOURCE LINE # 1278
01C6 18             7655             DEC     R0
01C7 E6             7656             MOV     A,@R0
01C8 25E0           7657             ADD     A,ACC
01CA 24B5           7658             ADD     A,#LOW (Str_TDAT+01H)
01CC F582           7659             MOV     DPL,A
01CE E4             7660             CLR     A
01CF 3407           7661             ADDC    A,#HIGH (Str_TDAT+01H)
01D1 F583           7662             MOV     DPH,A
01D3 E0             7663             MOVX    A,@DPTR
01D4 FF             7664             MOV     R7,A
01D5 E500     F     7665             MOV     A,i1
01D7 C4             7666             SWAP    A
01D8 54F0           7667             ANL     A,#0F0H
01DA 2400     F     7668             ADD     A,#LOW (Str_CH_A+0AH)
01DC F582           7669             MOV     DPL,A
01DE E4             7670             CLR     A
01DF 3400     F     7671             ADDC    A,#HIGH (Str_CH_A+0AH)
01E1 F583           7672             MOV     DPH,A
01E3 EF             7673             MOV     A,R7
01E4 F0             7674             MOVX    @DPTR,A
A51 MACRO ASSEMBLER  MAIN_BKCD                                                            12/02/2009 12:07:33 PAGE   118

                    7675     ;                          break;       
                    7676                             ; SOURCE LINE # 1279
01E5 8005           7677             SJMP    ?C0700
                    7678     ;                }
                    7679                             ; SOURCE LINE # 1280
                    7680     ;               }
                    7681                             ; SOURCE LINE # 1281
01E7                7682     ?C0704:
01E7 7800     F     7683             MOV     R0,#LOW (j1)
01E9 06             7684             INC     @R0
01EA 80B1           7685             SJMP    ?C0702
                    7686     ;       }
                    7687                             ; SOURCE LINE # 1282
01EC                7688     ?C0700:
01EC 0500     F     7689             INC     i1
01EE 020000   F     7690             LJMP    ?C0698
01F1                7691     ?C0699:
                    7692     ; 
                    7693     ;       for(j1=j;j1<5;j1++)
                    7694                             ; SOURCE LINE # 1284
01F1 7800     F     7695             MOV     R0,#LOW (j)
01F3 E6             7696             MOV     A,@R0
01F4 7800     F     7697             MOV     R0,#LOW (j1)
01F6 F6             7698             MOV     @R0,A
01F7                7699     ?C0706:
01F7 7800     F     7700             MOV     R0,#LOW (j1)
01F9 E6             7701             MOV     A,@R0
01FA FF             7702             MOV     R7,A
01FB C3             7703             CLR     C
01FC 9405           7704             SUBB    A,#05H
01FE 5010           7705             JNC     ?C0707
                    7706     ;       {
                    7707                             ; SOURCE LINE # 1285
                    7708     ;               buf_sh[j1]=0xFF;        
                    7709                             ; SOURCE LINE # 1286
0200 7400     F     7710             MOV     A,#LOW (buf_sh)
0202 2F             7711             ADD     A,R7
0203 F582           7712             MOV     DPL,A
0205 E4             7713             CLR     A
0206 3400     F     7714             ADDC    A,#HIGH (buf_sh)
0208 F583           7715             MOV     DPH,A
020A 74FF           7716             MOV     A,#0FFH
020C F0             7717             MOVX    @DPTR,A
                    7718     ;       }
                    7719                             ; SOURCE LINE # 1287
020D 06             7720             INC     @R0
020E 80E7           7721             SJMP    ?C0706
0210                7722     ?C0707:
                    7723     ; 
                    7724     ;         // сохрянять восстанавливать объемы двух каналов суммарный ргра если есть и нагру
                             зку.. 
                    7725     ; FUM_Epr1_Rd((0x160-0x100)>>2);
                    7726                             ; SOURCE LINE # 1290
0210 C2AF           7727             CLR     EA
0212 E4             7728             CLR     A
0213 F5C7           7729             MOV     EADRH,A
0215 75C618         7730             MOV     EADRL,#018H
0218 75B901         7731             MOV     ECON,#01H
021B F5C7           7732             MOV     EADRH,A
021D D2AF           7733             SETB    EA
                    7734     ; TEMP_1=EDATA1;
                    7735                             ; SOURCE LINE # 1291
021F AFBC           7736             MOV     R7,EDATA1
0221 FC             7737             MOV     R4,A
0222 FD             7738             MOV     R5,A
0223 FE             7739             MOV     R6,A
A51 MACRO ASSEMBLER  MAIN_BKCD                                                            12/02/2009 12:07:33 PAGE   119

0224 7800     F     7740             MOV     R0,#LOW (TEMP_1)
0226 120000   F     7741             LCALL   ?C?LSTIDATA
                    7742     ; TEMP_1=TEMP_1<<8;
                    7743                             ; SOURCE LINE # 1292
0229 7800     F     7744             MOV     R0,#LOW (TEMP_1)
022B 120000   F     7745             LCALL   ?C?LLDIDATA
022E 7808           7746             MOV     R0,#08H
0230 120000   F     7747             LCALL   ?C?LSHL
0233 7800     F     7748             MOV     R0,#LOW (TEMP_1)
0235 120000   F     7749             LCALL   ?C?LSTIDATA
                    7750     ; TEMP_1+=EDATA2;
                    7751                             ; SOURCE LINE # 1293
0238 7800     F     7752             MOV     R0,#LOW (TEMP_1)
023A 120000   F     7753             LCALL   ?C?LLDIDATA0
023D AFBD           7754             MOV     R7,EDATA2
023F E4             7755             CLR     A
0240 FC             7756             MOV     R4,A
0241 FD             7757             MOV     R5,A
0242 FE             7758             MOV     R6,A
0243 120000   F     7759             LCALL   ?C?LADD
0246 7800     F     7760             MOV     R0,#LOW (TEMP_1)
0248 120000   F     7761             LCALL   ?C?LSTIDATA
                    7762     ; TEMP_1=TEMP_1<<8;
                    7763                             ; SOURCE LINE # 1294
024B 7800     F     7764             MOV     R0,#LOW (TEMP_1)
024D 120000   F     7765             LCALL   ?C?LLDIDATA
0250 7808           7766             MOV     R0,#08H
0252 120000   F     7767             LCALL   ?C?LSHL
0255 7800     F     7768             MOV     R0,#LOW (TEMP_1)
0257 120000   F     7769             LCALL   ?C?LSTIDATA
                    7770     ; TEMP_1+=EDATA3;
                    7771                             ; SOURCE LINE # 1295
025A 7800     F     7772             MOV     R0,#LOW (TEMP_1)
025C 120000   F     7773             LCALL   ?C?LLDIDATA0
025F AFBE           7774             MOV     R7,EDATA3
0261 E4             7775             CLR     A
0262 FC             7776             MOV     R4,A
0263 FD             7777             MOV     R5,A
0264 FE             7778             MOV     R6,A
0265 120000   F     7779             LCALL   ?C?LADD
0268 7800     F     7780             MOV     R0,#LOW (TEMP_1)
026A 120000   F     7781             LCALL   ?C?LSTIDATA
                    7782     ; TEMP_1=TEMP_1<<8;
                    7783                             ; SOURCE LINE # 1296
026D 7800     F     7784             MOV     R0,#LOW (TEMP_1)
026F 120000   F     7785             LCALL   ?C?LLDIDATA
0272 7808           7786             MOV     R0,#08H
0274 120000   F     7787             LCALL   ?C?LSHL
0277 7800     F     7788             MOV     R0,#LOW (TEMP_1)
0279 120000   F     7789             LCALL   ?C?LSTIDATA
                    7790     ; TEMP_1+=EDATA4;
                    7791                             ; SOURCE LINE # 1297
027C 7800     F     7792             MOV     R0,#LOW (TEMP_1)
027E 120000   F     7793             LCALL   ?C?LLDIDATA0
0281 AFBF           7794             MOV     R7,EDATA4
0283 E4             7795             CLR     A
0284 FC             7796             MOV     R4,A
0285 FD             7797             MOV     R5,A
0286 FE             7798             MOV     R6,A
0287 120000   F     7799             LCALL   ?C?LADD
028A 7800     F     7800             MOV     R0,#LOW (TEMP_1)
028C 120000   F     7801             LCALL   ?C?LSTIDATA
                    7802     ; if    (TEMP_1!=0xFFFFFFFF)
                    7803                             ; SOURCE LINE # 1298
028F 74FF           7804             MOV     A,#0FFH
0291 FF             7805             MOV     R7,A
A51 MACRO ASSEMBLER  MAIN_BKCD                                                            12/02/2009 12:07:33 PAGE   120

0292 FE             7806             MOV     R6,A
0293 FD             7807             MOV     R5,A
0294 FC             7808             MOV     R4,A
0295 7800     F     7809             MOV     R0,#LOW (TEMP_1)
0297 120000   F     7810             LCALL   ?C?LLDIDATA0
029A C3             7811             CLR     C
029B 120000   F     7812             LCALL   ?C?ULCMP
029E 6044           7813             JZ      ?C0709
                    7814     ;       { 
                    7815                             ; SOURCE LINE # 1299
                    7816     ;               j=buf_sh[0];
                    7817                             ; SOURCE LINE # 1300
02A0 900000   F     7818             MOV     DPTR,#buf_sh
02A3 E0             7819             MOVX    A,@DPTR
02A4 FF             7820             MOV     R7,A
02A5 7800     F     7821             MOV     R0,#LOW (j)
02A7 F6             7822             MOV     @R0,A
                    7823     ;               if (j!=0xFF)
                    7824                             ; SOURCE LINE # 1301
02A8 F4             7825             CPL     A
02A9 6018           7826             JZ      ?C0710
                    7827     ;                       { BUF_T[j]=TEMP_1;
                    7828                             ; SOURCE LINE # 1302
02AB 7800     F     7829             MOV     R0,#LOW (TEMP_1)
02AD 120000   F     7830             LCALL   ?C?LLDIDATA
02B0 7800     F     7831             MOV     R0,#LOW (j)
02B2 E6             7832             MOV     A,@R0
02B3 25E0           7833             ADD     A,ACC
02B5 25E0           7834             ADD     A,ACC
02B7 2400     F     7835             ADD     A,#LOW (BUF_T)
02B9 F582           7836             MOV     DPL,A
02BB E4             7837             CLR     A
02BC 3400     F     7838             ADDC    A,#HIGH (BUF_T)
02BE F583           7839             MOV     DPH,A
02C0 120000   F     7840             LCALL   ?C?LSTXDATA
                    7841     ;                       } 
                    7842                             ; SOURCE LINE # 1303
02C3                7843     ?C0710:
                    7844     ;               FUM_Epr_Wr((0x160-0x100)>>2,0xFF,0xFF,0xFF,0xFF)
                    7845                             ; SOURCE LINE # 1304
02C3 C2AF           7846             CLR     EA
02C5 E4             7847             CLR     A
02C6 F5C7           7848             MOV     EADRH,A
02C8 75C618         7849             MOV     EADRL,#018H
02CB 75B901         7850             MOV     ECON,#01H
02CE 75BCFF         7851             MOV     EDATA1,#0FFH
02D1 75BDFF         7852             MOV     EDATA2,#0FFH
02D4 75BEFF         7853             MOV     EDATA3,#0FFH
02D7 75BFFF         7854             MOV     EDATA4,#0FFH
02DA 75B905         7855             MOV     ECON,#05H
02DD 75B902         7856             MOV     ECON,#02H
02E0 F5C7           7857             MOV     EADRH,A
02E2 D2AF           7858             SETB    EA
                    7859     ;       }
                    7860                             ; SOURCE LINE # 1305
02E4                7861     ?C0709:
                    7862     ; //pods=EDATA1;
                    7863     ; //pods=pods<<8;
                    7864     ; 
                    7865     ;  FUM_Epr1_Rd((0x164-0x100)>>2);
                    7866                             ; SOURCE LINE # 1309
02E4 C2AF           7867             CLR     EA
02E6 E4             7868             CLR     A
02E7 F5C7           7869             MOV     EADRH,A
02E9 75C619         7870             MOV     EADRL,#019H
02EC 75B901         7871             MOV     ECON,#01H
A51 MACRO ASSEMBLER  MAIN_BKCD                                                            12/02/2009 12:07:33 PAGE   121

02EF F5C7           7872             MOV     EADRH,A
02F1 D2AF           7873             SETB    EA
                    7874     ; TEMP_1=EDATA1;
                    7875                             ; SOURCE LINE # 1310
02F3 AFBC           7876             MOV     R7,EDATA1
02F5 FC             7877             MOV     R4,A
02F6 FD             7878             MOV     R5,A
02F7 FE             7879             MOV     R6,A
02F8 7800     F     7880             MOV     R0,#LOW (TEMP_1)
02FA 120000   F     7881             LCALL   ?C?LSTIDATA
                    7882     ; TEMP_1=TEMP_1<<8;
                    7883                             ; SOURCE LINE # 1311
02FD 7800     F     7884             MOV     R0,#LOW (TEMP_1)
02FF 120000   F     7885             LCALL   ?C?LLDIDATA
0302 7808           7886             MOV     R0,#08H
0304 120000   F     7887             LCALL   ?C?LSHL
0307 7800     F     7888             MOV     R0,#LOW (TEMP_1)
0309 120000   F     7889             LCALL   ?C?LSTIDATA
                    7890     ; TEMP_1+=EDATA2;
                    7891                             ; SOURCE LINE # 1312
030C 7800     F     7892             MOV     R0,#LOW (TEMP_1)
030E 120000   F     7893             LCALL   ?C?LLDIDATA0
0311 AFBD           7894             MOV     R7,EDATA2
0313 E4             7895             CLR     A
0314 FC             7896             MOV     R4,A
0315 FD             7897             MOV     R5,A
0316 FE             7898             MOV     R6,A
0317 120000   F     7899             LCALL   ?C?LADD
031A 7800     F     7900             MOV     R0,#LOW (TEMP_1)
031C 120000   F     7901             LCALL   ?C?LSTIDATA
                    7902     ; TEMP_1=TEMP_1<<8;
                    7903                             ; SOURCE LINE # 1313
031F 7800     F     7904             MOV     R0,#LOW (TEMP_1)
0321 120000   F     7905             LCALL   ?C?LLDIDATA
0324 7808           7906             MOV     R0,#08H
0326 120000   F     7907             LCALL   ?C?LSHL
0329 7800     F     7908             MOV     R0,#LOW (TEMP_1)
032B 120000   F     7909             LCALL   ?C?LSTIDATA
                    7910     ; TEMP_1+=EDATA3;
                    7911                             ; SOURCE LINE # 1314
032E 7800     F     7912             MOV     R0,#LOW (TEMP_1)
0330 120000   F     7913             LCALL   ?C?LLDIDATA0
0333 AFBE           7914             MOV     R7,EDATA3
0335 E4             7915             CLR     A
0336 FC             7916             MOV     R4,A
0337 FD             7917             MOV     R5,A
0338 FE             7918             MOV     R6,A
0339 120000   F     7919             LCALL   ?C?LADD
033C 7800     F     7920             MOV     R0,#LOW (TEMP_1)
033E 120000   F     7921             LCALL   ?C?LSTIDATA
                    7922     ; TEMP_1=TEMP_1<<8;
                    7923                             ; SOURCE LINE # 1315
0341 7800     F     7924             MOV     R0,#LOW (TEMP_1)
0343 120000   F     7925             LCALL   ?C?LLDIDATA
0346 7808           7926             MOV     R0,#08H
0348 120000   F     7927             LCALL   ?C?LSHL
034B 7800     F     7928             MOV     R0,#LOW (TEMP_1)
034D 120000   F     7929             LCALL   ?C?LSTIDATA
                    7930     ; TEMP_1+=EDATA4;
                    7931                             ; SOURCE LINE # 1316
0350 7800     F     7932             MOV     R0,#LOW (TEMP_1)
0352 120000   F     7933             LCALL   ?C?LLDIDATA0
0355 AFBF           7934             MOV     R7,EDATA4
0357 E4             7935             CLR     A
0358 FC             7936             MOV     R4,A
0359 FD             7937             MOV     R5,A
A51 MACRO ASSEMBLER  MAIN_BKCD                                                            12/02/2009 12:07:33 PAGE   122

035A FE             7938             MOV     R6,A
035B 120000   F     7939             LCALL   ?C?LADD
035E 7800     F     7940             MOV     R0,#LOW (TEMP_1)
0360 120000   F     7941             LCALL   ?C?LSTIDATA
                    7942     ; if    (TEMP_1!=0xFFFFFFFF)
                    7943                             ; SOURCE LINE # 1317
0363 74FF           7944             MOV     A,#0FFH
0365 FF             7945             MOV     R7,A
0366 FE             7946             MOV     R6,A
0367 FD             7947             MOV     R5,A
0368 FC             7948             MOV     R4,A
0369 7800     F     7949             MOV     R0,#LOW (TEMP_1)
036B 120000   F     7950             LCALL   ?C?LLDIDATA0
036E C3             7951             CLR     C
036F 120000   F     7952             LCALL   ?C?ULCMP
0372 6044           7953             JZ      ?C0711
                    7954     ;       { 
                    7955                             ; SOURCE LINE # 1318
                    7956     ;               j=buf_sh[1];
                    7957                             ; SOURCE LINE # 1319
0374 900000   F     7958             MOV     DPTR,#buf_sh+01H
0377 E0             7959             MOVX    A,@DPTR
0378 FF             7960             MOV     R7,A
0379 7800     F     7961             MOV     R0,#LOW (j)
037B F6             7962             MOV     @R0,A
                    7963     ;               if (j!=0xFF)
                    7964                             ; SOURCE LINE # 1320
037C F4             7965             CPL     A
037D 6018           7966             JZ      ?C0712
                    7967     ;                       { BUF_T[j]=TEMP_1;
                    7968                             ; SOURCE LINE # 1321
037F 7800     F     7969             MOV     R0,#LOW (TEMP_1)
0381 120000   F     7970             LCALL   ?C?LLDIDATA
0384 7800     F     7971             MOV     R0,#LOW (j)
0386 E6             7972             MOV     A,@R0
0387 25E0           7973             ADD     A,ACC
0389 25E0           7974             ADD     A,ACC
038B 2400     F     7975             ADD     A,#LOW (BUF_T)
038D F582           7976             MOV     DPL,A
038F E4             7977             CLR     A
0390 3400     F     7978             ADDC    A,#HIGH (BUF_T)
0392 F583           7979             MOV     DPH,A
0394 120000   F     7980             LCALL   ?C?LSTXDATA
                    7981     ;                       } 
                    7982                             ; SOURCE LINE # 1322
0397                7983     ?C0712:
                    7984     ;       FUM_Epr_Wr((0x164-0x100)>>2,0xFF,0xFF,0xFF,0xFF)
                    7985                             ; SOURCE LINE # 1323
0397 C2AF           7986             CLR     EA
0399 E4             7987             CLR     A
039A F5C7           7988             MOV     EADRH,A
039C 75C619         7989             MOV     EADRL,#019H
039F 75B901         7990             MOV     ECON,#01H
03A2 75BCFF         7991             MOV     EDATA1,#0FFH
03A5 75BDFF         7992             MOV     EDATA2,#0FFH
03A8 75BEFF         7993             MOV     EDATA3,#0FFH
03AB 75BFFF         7994             MOV     EDATA4,#0FFH
03AE 75B905         7995             MOV     ECON,#05H
03B1 75B902         7996             MOV     ECON,#02H
03B4 F5C7           7997             MOV     EADRH,A
03B6 D2AF           7998             SETB    EA
                    7999     ;       }
                    8000                             ; SOURCE LINE # 1324
03B8                8001     ?C0711:
                    8002     ; 
                    8003     ;  FUM_Epr1_Rd((0x168-0x100)>>2);
A51 MACRO ASSEMBLER  MAIN_BKCD                                                            12/02/2009 12:07:33 PAGE   123

                    8004                             ; SOURCE LINE # 1326
03B8 C2AF           8005             CLR     EA
03BA E4             8006             CLR     A
03BB F5C7           8007             MOV     EADRH,A
03BD 75C61A         8008             MOV     EADRL,#01AH
03C0 75B901         8009             MOV     ECON,#01H
03C3 F5C7           8010             MOV     EADRH,A
03C5 D2AF           8011             SETB    EA
                    8012     ; TEMP_1=EDATA1;
                    8013                             ; SOURCE LINE # 1327
03C7 AFBC           8014             MOV     R7,EDATA1
03C9 FC             8015             MOV     R4,A
03CA FD             8016             MOV     R5,A
03CB FE             8017             MOV     R6,A
03CC 7800     F     8018             MOV     R0,#LOW (TEMP_1)
03CE 120000   F     8019             LCALL   ?C?LSTIDATA
                    8020     ; TEMP_1=TEMP_1<<8;
                    8021                             ; SOURCE LINE # 1328
03D1 7800     F     8022             MOV     R0,#LOW (TEMP_1)
03D3 120000   F     8023             LCALL   ?C?LLDIDATA
03D6 7808           8024             MOV     R0,#08H
03D8 120000   F     8025             LCALL   ?C?LSHL
03DB 7800     F     8026             MOV     R0,#LOW (TEMP_1)
03DD 120000   F     8027             LCALL   ?C?LSTIDATA
                    8028     ; TEMP_1+=EDATA2;
                    8029                             ; SOURCE LINE # 1329
03E0 7800     F     8030             MOV     R0,#LOW (TEMP_1)
03E2 120000   F     8031             LCALL   ?C?LLDIDATA0
03E5 AFBD           8032             MOV     R7,EDATA2
03E7 E4             8033             CLR     A
03E8 FC             8034             MOV     R4,A
03E9 FD             8035             MOV     R5,A
03EA FE             8036             MOV     R6,A
03EB 120000   F     8037             LCALL   ?C?LADD
03EE 7800     F     8038             MOV     R0,#LOW (TEMP_1)
03F0 120000   F     8039             LCALL   ?C?LSTIDATA
                    8040     ; TEMP_1=TEMP_1<<8;
                    8041                             ; SOURCE LINE # 1330
03F3 7800     F     8042             MOV     R0,#LOW (TEMP_1)
03F5 120000   F     8043             LCALL   ?C?LLDIDATA
03F8 7808           8044             MOV     R0,#08H
03FA 120000   F     8045             LCALL   ?C?LSHL
03FD 7800     F     8046             MOV     R0,#LOW (TEMP_1)
03FF 120000   F     8047             LCALL   ?C?LSTIDATA
                    8048     ; TEMP_1+=EDATA3;
                    8049                             ; SOURCE LINE # 1331
0402 7800     F     8050             MOV     R0,#LOW (TEMP_1)
0404 120000   F     8051             LCALL   ?C?LLDIDATA0
0407 AFBE           8052             MOV     R7,EDATA3
0409 E4             8053             CLR     A
040A FC             8054             MOV     R4,A
040B FD             8055             MOV     R5,A
040C FE             8056             MOV     R6,A
040D 120000   F     8057             LCALL   ?C?LADD
0410 7800     F     8058             MOV     R0,#LOW (TEMP_1)
0412 120000   F     8059             LCALL   ?C?LSTIDATA
                    8060     ; TEMP_1=TEMP_1<<8;
                    8061                             ; SOURCE LINE # 1332
0415 7800     F     8062             MOV     R0,#LOW (TEMP_1)
0417 120000   F     8063             LCALL   ?C?LLDIDATA
041A 7808           8064             MOV     R0,#08H
041C 120000   F     8065             LCALL   ?C?LSHL
041F 7800     F     8066             MOV     R0,#LOW (TEMP_1)
0421 120000   F     8067             LCALL   ?C?LSTIDATA
                    8068     ; TEMP_1+=EDATA4;
                    8069                             ; SOURCE LINE # 1333
A51 MACRO ASSEMBLER  MAIN_BKCD                                                            12/02/2009 12:07:33 PAGE   124

0424 7800     F     8070             MOV     R0,#LOW (TEMP_1)
0426 120000   F     8071             LCALL   ?C?LLDIDATA0
0429 AFBF           8072             MOV     R7,EDATA4
042B E4             8073             CLR     A
042C FC             8074             MOV     R4,A
042D FD             8075             MOV     R5,A
042E FE             8076             MOV     R6,A
042F 120000   F     8077             LCALL   ?C?LADD
0432 7800     F     8078             MOV     R0,#LOW (TEMP_1)
0434 120000   F     8079             LCALL   ?C?LSTIDATA
                    8080     ; if    (TEMP_1!=0xFFFFFFFF)
                    8081                             ; SOURCE LINE # 1334
0437 74FF           8082             MOV     A,#0FFH
0439 FF             8083             MOV     R7,A
043A FE             8084             MOV     R6,A
043B FD             8085             MOV     R5,A
043C FC             8086             MOV     R4,A
043D 7800     F     8087             MOV     R0,#LOW (TEMP_1)
043F 120000   F     8088             LCALL   ?C?LLDIDATA0
0442 C3             8089             CLR     C
0443 120000   F     8090             LCALL   ?C?ULCMP
0446 6044           8091             JZ      ?C0713
                    8092     ;       { 
                    8093                             ; SOURCE LINE # 1335
                    8094     ;               j=buf_sh[2];
                    8095                             ; SOURCE LINE # 1336
0448 900000   F     8096             MOV     DPTR,#buf_sh+02H
044B E0             8097             MOVX    A,@DPTR
044C FF             8098             MOV     R7,A
044D 7800     F     8099             MOV     R0,#LOW (j)
044F F6             8100             MOV     @R0,A
                    8101     ;               if (j!=0xFF)
                    8102                             ; SOURCE LINE # 1337
0450 F4             8103             CPL     A
0451 6018           8104             JZ      ?C0714
                    8105     ;                       { BUF_T[j]=TEMP_1;
                    8106                             ; SOURCE LINE # 1338
0453 7800     F     8107             MOV     R0,#LOW (TEMP_1)
0455 120000   F     8108             LCALL   ?C?LLDIDATA
0458 7800     F     8109             MOV     R0,#LOW (j)
045A E6             8110             MOV     A,@R0
045B 25E0           8111             ADD     A,ACC
045D 25E0           8112             ADD     A,ACC
045F 2400     F     8113             ADD     A,#LOW (BUF_T)
0461 F582           8114             MOV     DPL,A
0463 E4             8115             CLR     A
0464 3400     F     8116             ADDC    A,#HIGH (BUF_T)
0466 F583           8117             MOV     DPH,A
0468 120000   F     8118             LCALL   ?C?LSTXDATA
                    8119     ;                       } 
                    8120                             ; SOURCE LINE # 1339
046B                8121     ?C0714:
                    8122     ;       FUM_Epr_Wr((0x168-0x100)>>2,0xFF,0xFF,0xFF,0xFF)
                    8123                             ; SOURCE LINE # 1340
046B C2AF           8124             CLR     EA
046D E4             8125             CLR     A
046E F5C7           8126             MOV     EADRH,A
0470 75C61A         8127             MOV     EADRL,#01AH
0473 75B901         8128             MOV     ECON,#01H
0476 75BCFF         8129             MOV     EDATA1,#0FFH
0479 75BDFF         8130             MOV     EDATA2,#0FFH
047C 75BEFF         8131             MOV     EDATA3,#0FFH
047F 75BFFF         8132             MOV     EDATA4,#0FFH
0482 75B905         8133             MOV     ECON,#05H
0485 75B902         8134             MOV     ECON,#02H
0488 F5C7           8135             MOV     EADRH,A
A51 MACRO ASSEMBLER  MAIN_BKCD                                                            12/02/2009 12:07:33 PAGE   125

048A D2AF           8136             SETB    EA
                    8137     ;       }
                    8138                             ; SOURCE LINE # 1341
048C                8139     ?C0713:
                    8140     ;  
                    8141     ;  FUM_Epr1_Rd((0x16C-0x100)>>2);
                    8142                             ; SOURCE LINE # 1343
048C C2AF           8143             CLR     EA
048E E4             8144             CLR     A
048F F5C7           8145             MOV     EADRH,A
0491 75C61B         8146             MOV     EADRL,#01BH
0494 75B901         8147             MOV     ECON,#01H
0497 F5C7           8148             MOV     EADRH,A
0499 D2AF           8149             SETB    EA
                    8150     ; TEMP_1=EDATA1;
                    8151                             ; SOURCE LINE # 1344
049B AFBC           8152             MOV     R7,EDATA1
049D FC             8153             MOV     R4,A
049E FD             8154             MOV     R5,A
049F FE             8155             MOV     R6,A
04A0 7800     F     8156             MOV     R0,#LOW (TEMP_1)
04A2 120000   F     8157             LCALL   ?C?LSTIDATA
                    8158     ; TEMP_1=TEMP_1<<8;
                    8159                             ; SOURCE LINE # 1345
04A5 7800     F     8160             MOV     R0,#LOW (TEMP_1)
04A7 120000   F     8161             LCALL   ?C?LLDIDATA
04AA 7808           8162             MOV     R0,#08H
04AC 120000   F     8163             LCALL   ?C?LSHL
04AF 7800     F     8164             MOV     R0,#LOW (TEMP_1)
04B1 120000   F     8165             LCALL   ?C?LSTIDATA
                    8166     ; TEMP_1+=EDATA2;
                    8167                             ; SOURCE LINE # 1346
04B4 7800     F     8168             MOV     R0,#LOW (TEMP_1)
04B6 120000   F     8169             LCALL   ?C?LLDIDATA0
04B9 AFBD           8170             MOV     R7,EDATA2
04BB E4             8171             CLR     A
04BC FC             8172             MOV     R4,A
04BD FD             8173             MOV     R5,A
04BE FE             8174             MOV     R6,A
04BF 120000   F     8175             LCALL   ?C?LADD
04C2 7800     F     8176             MOV     R0,#LOW (TEMP_1)
04C4 120000   F     8177             LCALL   ?C?LSTIDATA
                    8178     ; TEMP_1=TEMP_1<<8;
                    8179                             ; SOURCE LINE # 1347
04C7 7800     F     8180             MOV     R0,#LOW (TEMP_1)
04C9 120000   F     8181             LCALL   ?C?LLDIDATA
04CC 7808           8182             MOV     R0,#08H
04CE 120000   F     8183             LCALL   ?C?LSHL
04D1 7800     F     8184             MOV     R0,#LOW (TEMP_1)
04D3 120000   F     8185             LCALL   ?C?LSTIDATA
                    8186     ; TEMP_1+=EDATA3;
                    8187                             ; SOURCE LINE # 1348
04D6 7800     F     8188             MOV     R0,#LOW (TEMP_1)
04D8 120000   F     8189             LCALL   ?C?LLDIDATA0
04DB AFBE           8190             MOV     R7,EDATA3
04DD E4             8191             CLR     A
04DE FC             8192             MOV     R4,A
04DF FD             8193             MOV     R5,A
04E0 FE             8194             MOV     R6,A
04E1 120000   F     8195             LCALL   ?C?LADD
04E4 7800     F     8196             MOV     R0,#LOW (TEMP_1)
04E6 120000   F     8197             LCALL   ?C?LSTIDATA
                    8198     ; TEMP_1=TEMP_1<<8;
                    8199                             ; SOURCE LINE # 1349
04E9 7800     F     8200             MOV     R0,#LOW (TEMP_1)
04EB 120000   F     8201             LCALL   ?C?LLDIDATA
A51 MACRO ASSEMBLER  MAIN_BKCD                                                            12/02/2009 12:07:33 PAGE   126

04EE 7808           8202             MOV     R0,#08H
04F0 120000   F     8203             LCALL   ?C?LSHL
04F3 7800     F     8204             MOV     R0,#LOW (TEMP_1)
04F5 120000   F     8205             LCALL   ?C?LSTIDATA
                    8206     ; TEMP_1+=EDATA4;
                    8207                             ; SOURCE LINE # 1350
04F8 7800     F     8208             MOV     R0,#LOW (TEMP_1)
04FA 120000   F     8209             LCALL   ?C?LLDIDATA0
04FD AFBF           8210             MOV     R7,EDATA4
04FF E4             8211             CLR     A
0500 FC             8212             MOV     R4,A
0501 FD             8213             MOV     R5,A
0502 FE             8214             MOV     R6,A
0503 120000   F     8215             LCALL   ?C?LADD
0506 7800     F     8216             MOV     R0,#LOW (TEMP_1)
0508 120000   F     8217             LCALL   ?C?LSTIDATA
                    8218     ; if    (TEMP_1!=0xFFFFFFFF)
                    8219                             ; SOURCE LINE # 1351
050B 74FF           8220             MOV     A,#0FFH
050D FF             8221             MOV     R7,A
050E FE             8222             MOV     R6,A
050F FD             8223             MOV     R5,A
0510 FC             8224             MOV     R4,A
0511 7800     F     8225             MOV     R0,#LOW (TEMP_1)
0513 120000   F     8226             LCALL   ?C?LLDIDATA0
0516 C3             8227             CLR     C
0517 120000   F     8228             LCALL   ?C?ULCMP
051A 6044           8229             JZ      ?C0715
                    8230     ;       {
                    8231                             ; SOURCE LINE # 1352
                    8232     ;               j=buf_sh[3];
                    8233                             ; SOURCE LINE # 1353
051C 900000   F     8234             MOV     DPTR,#buf_sh+03H
051F E0             8235             MOVX    A,@DPTR
0520 FF             8236             MOV     R7,A
0521 7800     F     8237             MOV     R0,#LOW (j)
0523 F6             8238             MOV     @R0,A
                    8239     ;               if (j!=0xFF)
                    8240                             ; SOURCE LINE # 1354
0524 F4             8241             CPL     A
0525 6018           8242             JZ      ?C0716
                    8243     ;                       { BUF_T[j]=TEMP_1;
                    8244                             ; SOURCE LINE # 1355
0527 7800     F     8245             MOV     R0,#LOW (TEMP_1)
0529 120000   F     8246             LCALL   ?C?LLDIDATA
052C 7800     F     8247             MOV     R0,#LOW (j)
052E E6             8248             MOV     A,@R0
052F 25E0           8249             ADD     A,ACC
0531 25E0           8250             ADD     A,ACC
0533 2400     F     8251             ADD     A,#LOW (BUF_T)
0535 F582           8252             MOV     DPL,A
0537 E4             8253             CLR     A
0538 3400     F     8254             ADDC    A,#HIGH (BUF_T)
053A F583           8255             MOV     DPH,A
053C 120000   F     8256             LCALL   ?C?LSTXDATA
                    8257     ;                       } 
                    8258                             ; SOURCE LINE # 1356
053F                8259     ?C0716:
                    8260     ;       FUM_Epr_Wr((0x16C-0x100)>>2,0xFF,0xFF,0xFF,0xFF)
                    8261                             ; SOURCE LINE # 1357
053F C2AF           8262             CLR     EA
0541 E4             8263             CLR     A
0542 F5C7           8264             MOV     EADRH,A
0544 75C61B         8265             MOV     EADRL,#01BH
0547 75B901         8266             MOV     ECON,#01H
054A 75BCFF         8267             MOV     EDATA1,#0FFH
A51 MACRO ASSEMBLER  MAIN_BKCD                                                            12/02/2009 12:07:33 PAGE   127

054D 75BDFF         8268             MOV     EDATA2,#0FFH
0550 75BEFF         8269             MOV     EDATA3,#0FFH
0553 75BFFF         8270             MOV     EDATA4,#0FFH
0556 75B905         8271             MOV     ECON,#05H
0559 75B902         8272             MOV     ECON,#02H
055C F5C7           8273             MOV     EADRH,A
055E D2AF           8274             SETB    EA
                    8275     ;       }
                    8276                             ; SOURCE LINE # 1358
0560                8277     ?C0715:
                    8278     ;       
                    8279     ; rez=1;
                    8280                             ; SOURCE LINE # 1360
0560 D200     F     8281             SETB    rez
                    8282     ; task_3();
                    8283                             ; SOURCE LINE # 1361
0562 120000   F     8284             LCALL   task_3
                    8285     ; rez=0;
                    8286                             ; SOURCE LINE # 1362
0565 C200     F     8287             CLR     rez
                    8288     ; 
                    8289     ; sttim1();
                    8290                             ; SOURCE LINE # 1364
0567 120000   F     8291             LCALL   sttim1
                    8292     ; TF1=0;
                    8293                             ; SOURCE LINE # 1365
056A C28F           8294             CLR     TF1
                    8295     ; ET1=1;
                    8296                             ; SOURCE LINE # 1366
056C D2AB           8297             SETB    ET1
                    8298     ; TR1=1;
                    8299                             ; SOURCE LINE # 1367
056E D28E           8300             SETB    TR1
                    8301     ; 
                    8302     ; st_ser=5;
                    8303                             ; SOURCE LINE # 1369
0570 900000   F     8304             MOV     DPTR,#st_ser
0573 7405           8305             MOV     A,#05H
0575 F0             8306             MOVX    @DPTR,A
                    8307     ; ES=1;
                    8308                             ; SOURCE LINE # 1370
0576 D2AC           8309             SETB    ES
                    8310     ; EX0=1;
                    8311                             ; SOURCE LINE # 1371
0578 D2A8           8312             SETB    EX0
                    8313     ; EA = 1;
                    8314                             ; SOURCE LINE # 1372
057A D2AF           8315             SETB    EA
                    8316     ; 
                    8317     ; 
                    8318     ; zz1:
                    8319                             ; SOURCE LINE # 1375
057C                8320     ?main?zz1:
                    8321     ; 
                    8322     ;  if (ep2==1) 
                    8323                             ; SOURCE LINE # 1377
057C 300020   F     8324             JNB     ep2,?C0718
                    8325     ;  {mi1++;
                    8326                             ; SOURCE LINE # 1378
057F 900000   F     8327             MOV     DPTR,#mi1
0582 E4             8328             CLR     A
0583 75F001         8329             MOV     B,#01H
0586 120000   F     8330             LCALL   ?C?IILDX
                    8331     ;   if (mi1>50)
                    8332                             ; SOURCE LINE # 1379
0589 D3             8333             SETB    C
A51 MACRO ASSEMBLER  MAIN_BKCD                                                            12/02/2009 12:07:33 PAGE   128

058A 900000   F     8334             MOV     DPTR,#mi1+01H
058D E0             8335             MOVX    A,@DPTR
058E 9432           8336             SUBB    A,#032H
0590 900000   F     8337             MOV     DPTR,#mi1
0593 E0             8338             MOVX    A,@DPTR
0594 9400           8339             SUBB    A,#00H
0596 4007           8340             JC      ?C0718
                    8341     ;   {   P2 =P2^0x10;
                    8342                             ; SOURCE LINE # 1380
0598 63A010         8343             XRL     P2,#010H
                    8344     ;       mi1=0;
                    8345                             ; SOURCE LINE # 1381
059B E4             8346             CLR     A
059C F0             8347             MOVX    @DPTR,A
059D A3             8348             INC     DPTR
059E F0             8349             MOVX    @DPTR,A
                    8350     ;   }
                    8351                             ; SOURCE LINE # 1382
                    8352     ;  }
                    8353                             ; SOURCE LINE # 1383
059F                8354     ?C0718:
                    8355     ; 
                    8356     ; task_3();
                    8357                             ; SOURCE LINE # 1385
059F 120000   F     8358             LCALL   task_3
                    8359     ; kon_t=0;  
                    8360                             ; SOURCE LINE # 1386
05A2 C200     F     8361             CLR     kon_t
                    8362     ; 
                    8363     ;  goto zz1;                   
                    8364                             ; SOURCE LINE # 1388
05A4 80D6           8365             SJMP    ?main?zz1
                    8366     ; END OF main
                    8367     
                    8368             END
A51 MACRO ASSEMBLER  MAIN_BKCD                                                            12/02/2009 12:07:33 PAGE   129

SYMBOL TABLE LISTING
------ ----- -------


N A M E                  T Y P E  V A L U E   ATTRIBUTES

?BI?MAIN_BKCD . . . . .  B SEG    001AH       REL=UNIT
?C0001. . . . . . . . .  C ADDR   000CH   R   SEG=?PR?STTIM1?MAIN_BKCD
?C0002. . . . . . . . .  C ADDR   0076H   R   SEG=?PR?INTIE?MAIN_BKCD
?C0003. . . . . . . . .  C ADDR   00D5H   R   SEG=?PR?INTIE?MAIN_BKCD
?C0004. . . . . . . . .  C ADDR   0134H   R   SEG=?PR?INTIE?MAIN_BKCD
?C0006. . . . . . . . .  C ADDR   0193H   R   SEG=?PR?INTIE?MAIN_BKCD
?C0007. . . . . . . . .  C ADDR   019EH   R   SEG=?PR?INTIE?MAIN_BKCD
?C0009. . . . . . . . .  C ADDR   005DH   R   SEG=?PR?TIMER1INT?MAIN_BKCD
?C0010. . . . . . . . .  C ADDR   0033H   R   SEG=?PR?TIMER1INT?MAIN_BKCD
?C0011. . . . . . . . .  C ADDR   0035H   R   SEG=?PR?TIMER1INT?MAIN_BKCD
?C0012. . . . . . . . .  C ADDR   0042H   R   SEG=?PR?TIMER1INT?MAIN_BKCD
?C0013. . . . . . . . .  C ADDR   0044H   R   SEG=?PR?TIMER1INT?MAIN_BKCD
?C0014. . . . . . . . .  C ADDR   0053H   R   SEG=?PR?TIMER1INT?MAIN_BKCD
?C0015. . . . . . . . .  C ADDR   0055H   R   SEG=?PR?TIMER1INT?MAIN_BKCD
?C0016. . . . . . . . .  C ADDR   0083H   R   SEG=?PR?TIMER1INT?MAIN_BKCD
?C0017. . . . . . . . .  C ADDR   0098H   R   SEG=?PR?TIMER1INT?MAIN_BKCD
?C0019. . . . . . . . .  C ADDR   01B2H   R   SEG=?PR?TIMER1INT?MAIN_BKCD
?C0020. . . . . . . . .  C ADDR   00AAH   R   SEG=?PR?TIMER1INT?MAIN_BKCD
?C0021. . . . . . . . .  C ADDR   00ACH   R   SEG=?PR?TIMER1INT?MAIN_BKCD
?C0022. . . . . . . . .  C ADDR   00B6H   R   SEG=?PR?TIMER1INT?MAIN_BKCD
?C0023. . . . . . . . .  C ADDR   00B8H   R   SEG=?PR?TIMER1INT?MAIN_BKCD
?C0025. . . . . . . . .  C ADDR   00D9H   R   SEG=?PR?TIMER1INT?MAIN_BKCD
?C0026. . . . . . . . .  C ADDR   00FDH   R   SEG=?PR?TIMER1INT?MAIN_BKCD
?C0028. . . . . . . . .  C ADDR   0186H   R   SEG=?PR?TIMER1INT?MAIN_BKCD
?C0029. . . . . . . . .  C ADDR   0157H   R   SEG=?PR?TIMER1INT?MAIN_BKCD
?C0030. . . . . . . . .  C ADDR   0180H   R   SEG=?PR?TIMER1INT?MAIN_BKCD
?C0031. . . . . . . . .  C ADDR   01D0H   R   SEG=?PR?TIMER1INT?MAIN_BKCD
?C0033. . . . . . . . .  C ADDR   01BDH   R   SEG=?PR?TIMER1INT?MAIN_BKCD
?C0034. . . . . . . . .  C ADDR   01BFH   R   SEG=?PR?TIMER1INT?MAIN_BKCD
?C0035. . . . . . . . .  C ADDR   01C7H   R   SEG=?PR?TIMER1INT?MAIN_BKCD
?C0036. . . . . . . . .  C ADDR   01C9H   R   SEG=?PR?TIMER1INT?MAIN_BKCD
?C0037. . . . . . . . .  C ADDR   0204H   R   SEG=?PR?TIMER1INT?MAIN_BKCD
?C0039. . . . . . . . .  C ADDR   01E2H   R   SEG=?PR?TIMER1INT?MAIN_BKCD
?C0040. . . . . . . . .  C ADDR   01E4H   R   SEG=?PR?TIMER1INT?MAIN_BKCD
?C0041. . . . . . . . .  C ADDR   01EBH   R   SEG=?PR?TIMER1INT?MAIN_BKCD
?C0042. . . . . . . . .  C ADDR   01EDH   R   SEG=?PR?TIMER1INT?MAIN_BKCD
?C0043. . . . . . . . .  C ADDR   0210H   R   SEG=?PR?TIMER1INT?MAIN_BKCD
?C0045. . . . . . . . .  C ADDR   03E6H   R   SEG=?PR?TIMER1INT?MAIN_BKCD
?C0046. . . . . . . . .  C ADDR   0374H   R   SEG=?PR?TIMER1INT?MAIN_BKCD
?C0047. . . . . . . . .  C ADDR   0238H   R   SEG=?PR?TIMER1INT?MAIN_BKCD
?C0048. . . . . . . . .  C ADDR   023AH   R   SEG=?PR?TIMER1INT?MAIN_BKCD
?C0049. . . . . . . . .  C ADDR   024DH   R   SEG=?PR?TIMER1INT?MAIN_BKCD
?C0050. . . . . . . . .  C ADDR   024FH   R   SEG=?PR?TIMER1INT?MAIN_BKCD
?C0051. . . . . . . . .  C ADDR   0370H   R   SEG=?PR?TIMER1INT?MAIN_BKCD
?C0052. . . . . . . . .  C ADDR   02A9H   R   SEG=?PR?TIMER1INT?MAIN_BKCD
?C0053. . . . . . . . .  C ADDR   031CH   R   SEG=?PR?TIMER1INT?MAIN_BKCD
?C0054. . . . . . . . .  C ADDR   02DDH   R   SEG=?PR?TIMER1INT?MAIN_BKCD
?C0055. . . . . . . . .  C ADDR   0300H   R   SEG=?PR?TIMER1INT?MAIN_BKCD
?C0057. . . . . . . . .  C ADDR   03B1H   R   SEG=?PR?TIMER1INT?MAIN_BKCD
?C0061. . . . . . . . .  C ADDR   05AFH   R   SEG=?PR?TIMER1INT?MAIN_BKCD
?C0062. . . . . . . . .  C ADDR   053DH   R   SEG=?PR?TIMER1INT?MAIN_BKCD
?C0063. . . . . . . . .  C ADDR   0401H   R   SEG=?PR?TIMER1INT?MAIN_BKCD
?C0064. . . . . . . . .  C ADDR   0403H   R   SEG=?PR?TIMER1INT?MAIN_BKCD
?C0065. . . . . . . . .  C ADDR   0416H   R   SEG=?PR?TIMER1INT?MAIN_BKCD
?C0066. . . . . . . . .  C ADDR   0418H   R   SEG=?PR?TIMER1INT?MAIN_BKCD
?C0067. . . . . . . . .  C ADDR   0539H   R   SEG=?PR?TIMER1INT?MAIN_BKCD
?C0068. . . . . . . . .  C ADDR   0472H   R   SEG=?PR?TIMER1INT?MAIN_BKCD
?C0069. . . . . . . . .  C ADDR   04E5H   R   SEG=?PR?TIMER1INT?MAIN_BKCD
?C0070. . . . . . . . .  C ADDR   04A6H   R   SEG=?PR?TIMER1INT?MAIN_BKCD
?C0071. . . . . . . . .  C ADDR   04C9H   R   SEG=?PR?TIMER1INT?MAIN_BKCD
A51 MACRO ASSEMBLER  MAIN_BKCD                                                            12/02/2009 12:07:33 PAGE   130

?C0073. . . . . . . . .  C ADDR   057AH   R   SEG=?PR?TIMER1INT?MAIN_BKCD
?C0079. . . . . . . . .  C ADDR   05BFH   R   SEG=?PR?TIMER1INT?MAIN_BKCD
?C0080. . . . . . . . .  C ADDR   05C1H   R   SEG=?PR?TIMER1INT?MAIN_BKCD
?C0081. . . . . . . . .  C ADDR   05D4H   R   SEG=?PR?TIMER1INT?MAIN_BKCD
?C0082. . . . . . . . .  C ADDR   05D6H   R   SEG=?PR?TIMER1INT?MAIN_BKCD
?C0083. . . . . . . . .  C ADDR   05F0H   R   SEG=?PR?TIMER1INT?MAIN_BKCD
?C0085. . . . . . . . .  C ADDR   05F8H   R   SEG=?PR?TIMER1INT?MAIN_BKCD
?C0086. . . . . . . . .  C ADDR   0515H   R   SEG=?PR?SER_INT?MAIN_BKCD
?C0087. . . . . . . . .  C ADDR   0014H   R   SEG=?PR?SER_INT?MAIN_BKCD
?C0088. . . . . . . . .  C ADDR   0016H   R   SEG=?PR?SER_INT?MAIN_BKCD
?C0089. . . . . . . . .  C ADDR   001DH   R   SEG=?PR?SER_INT?MAIN_BKCD
?C0090. . . . . . . . .  C ADDR   001FH   R   SEG=?PR?SER_INT?MAIN_BKCD
?C0092. . . . . . . . .  C ADDR   0034H   R   SEG=?PR?SER_INT?MAIN_BKCD
?C0093. . . . . . . . .  C ADDR   0036H   R   SEG=?PR?SER_INT?MAIN_BKCD
?C0094. . . . . . . . .  C ADDR   003EH   R   SEG=?PR?SER_INT?MAIN_BKCD
?C0095. . . . . . . . .  C ADDR   0040H   R   SEG=?PR?SER_INT?MAIN_BKCD
?C0096. . . . . . . . .  C ADDR   0047H   R   SEG=?PR?SER_INT?MAIN_BKCD
?C0098. . . . . . . . .  C ADDR   0060H   R   SEG=?PR?SER_INT?MAIN_BKCD
?C0099. . . . . . . . .  C ADDR   006CH   R   SEG=?PR?SER_INT?MAIN_BKCD
?C0100. . . . . . . . .  C ADDR   0076H   R   SEG=?PR?SER_INT?MAIN_BKCD
?C0101. . . . . . . . .  C ADDR   05F7H   R   SEG=?PR?SER_INT?MAIN_BKCD
?C0102. . . . . . . . .  C ADDR   00A6H   R   SEG=?PR?SER_INT?MAIN_BKCD
?C0103. . . . . . . . .  C ADDR   00A3H   R   SEG=?PR?SER_INT?MAIN_BKCD
?C0104. . . . . . . . .  C ADDR   0089H   R   SEG=?PR?SER_INT?MAIN_BKCD
?C0105. . . . . . . . .  C ADDR   008BH   R   SEG=?PR?SER_INT?MAIN_BKCD
?C0106. . . . . . . . .  C ADDR   0095H   R   SEG=?PR?SER_INT?MAIN_BKCD
?C0107. . . . . . . . .  C ADDR   0097H   R   SEG=?PR?SER_INT?MAIN_BKCD
?C0109. . . . . . . . .  C ADDR   00B4H   R   SEG=?PR?SER_INT?MAIN_BKCD
?C0111. . . . . . . . .  C ADDR   00F7H   R   SEG=?PR?SER_INT?MAIN_BKCD
?C0112. . . . . . . . .  C ADDR   00F4H   R   SEG=?PR?SER_INT?MAIN_BKCD
?C0113. . . . . . . . .  C ADDR   00CAH   R   SEG=?PR?SER_INT?MAIN_BKCD
?C0114. . . . . . . . .  C ADDR   00CCH   R   SEG=?PR?SER_INT?MAIN_BKCD
?C0115. . . . . . . . .  C ADDR   00D4H   R   SEG=?PR?SER_INT?MAIN_BKCD
?C0116. . . . . . . . .  C ADDR   00D6H   R   SEG=?PR?SER_INT?MAIN_BKCD
?C0117. . . . . . . . .  C ADDR   00E1H   R   SEG=?PR?SER_INT?MAIN_BKCD
?C0118. . . . . . . . .  C ADDR   00E3H   R   SEG=?PR?SER_INT?MAIN_BKCD
?C0119. . . . . . . . .  C ADDR   00EDH   R   SEG=?PR?SER_INT?MAIN_BKCD
?C0120. . . . . . . . .  C ADDR   00EFH   R   SEG=?PR?SER_INT?MAIN_BKCD
?C0123. . . . . . . . .  C ADDR   0113H   R   SEG=?PR?SER_INT?MAIN_BKCD
?C0124. . . . . . . . .  C ADDR   0115H   R   SEG=?PR?SER_INT?MAIN_BKCD
?C0125. . . . . . . . .  C ADDR   0120H   R   SEG=?PR?SER_INT?MAIN_BKCD
?C0126. . . . . . . . .  C ADDR   0122H   R   SEG=?PR?SER_INT?MAIN_BKCD
?C0127. . . . . . . . .  C ADDR   0508H   R   SEG=?PR?SER_INT?MAIN_BKCD
?C0128. . . . . . . . .  C ADDR   013AH   R   SEG=?PR?SER_INT?MAIN_BKCD
?C0129. . . . . . . . .  C ADDR   013CH   R   SEG=?PR?SER_INT?MAIN_BKCD
?C0130. . . . . . . . .  C ADDR   0144H   R   SEG=?PR?SER_INT?MAIN_BKCD
?C0131. . . . . . . . .  C ADDR   0146H   R   SEG=?PR?SER_INT?MAIN_BKCD
?C0132. . . . . . . . .  C ADDR   0151H   R   SEG=?PR?SER_INT?MAIN_BKCD
?C0133. . . . . . . . .  C ADDR   0153H   R   SEG=?PR?SER_INT?MAIN_BKCD
?C0134. . . . . . . . .  C ADDR   015EH   R   SEG=?PR?SER_INT?MAIN_BKCD
?C0135. . . . . . . . .  C ADDR   0160H   R   SEG=?PR?SER_INT?MAIN_BKCD
?C0136. . . . . . . . .  C ADDR   016EH   R   SEG=?PR?SER_INT?MAIN_BKCD
?C0137. . . . . . . . .  C ADDR   018AH   R   SEG=?PR?SER_INT?MAIN_BKCD
?C0139. . . . . . . . .  C ADDR   0506H   R   SEG=?PR?SER_INT?MAIN_BKCD
?C0140. . . . . . . . .  C ADDR   01AAH   R   SEG=?PR?SER_INT?MAIN_BKCD
?C0141. . . . . . . . .  C ADDR   01ADH   R   SEG=?PR?SER_INT?MAIN_BKCD
?C0142. . . . . . . . .  C ADDR   01CDH   R   SEG=?PR?SER_INT?MAIN_BKCD
?C0144. . . . . . . . .  C ADDR   028AH   R   SEG=?PR?SER_INT?MAIN_BKCD
?C0145. . . . . . . . .  C ADDR   01FFH   R   SEG=?PR?SER_INT?MAIN_BKCD
?C0146. . . . . . . . .  C ADDR   0238H   R   SEG=?PR?SER_INT?MAIN_BKCD
?C0147. . . . . . . . .  C ADDR   0213H   R   SEG=?PR?SER_INT?MAIN_BKCD
?C0148. . . . . . . . .  C ADDR   0232H   R   SEG=?PR?SER_INT?MAIN_BKCD
?C0150. . . . . . . . .  C ADDR   0284H   R   SEG=?PR?SER_INT?MAIN_BKCD
?C0151. . . . . . . . .  C ADDR   025FH   R   SEG=?PR?SER_INT?MAIN_BKCD
?C0152. . . . . . . . .  C ADDR   027EH   R   SEG=?PR?SER_INT?MAIN_BKCD
?C0154. . . . . . . . .  C ADDR   049AH   R   SEG=?PR?SER_INT?MAIN_BKCD
A51 MACRO ASSEMBLER  MAIN_BKCD                                                            12/02/2009 12:07:33 PAGE   131

?C0155. . . . . . . . .  C ADDR   02C2H   R   SEG=?PR?SER_INT?MAIN_BKCD
?C0156. . . . . . . . .  C ADDR   029BH   R   SEG=?PR?SER_INT?MAIN_BKCD
?C0157. . . . . . . . .  C ADDR   02BAH   R   SEG=?PR?SER_INT?MAIN_BKCD
?C0160. . . . . . . . .  C ADDR   02E0H   R   SEG=?PR?SER_INT?MAIN_BKCD
?C0161. . . . . . . . .  C ADDR   0339H   R   SEG=?PR?SER_INT?MAIN_BKCD
?C0162. . . . . . . . .  C ADDR   02E8H   R   SEG=?PR?SER_INT?MAIN_BKCD
?C0163. . . . . . . . .  C ADDR   0307H   R   SEG=?PR?SER_INT?MAIN_BKCD
?C0165. . . . . . . . .  C ADDR   0310H   R   SEG=?PR?SER_INT?MAIN_BKCD
?C0168. . . . . . . . .  C ADDR   0366H   R   SEG=?PR?SER_INT?MAIN_BKCD
?C0169. . . . . . . . .  C ADDR   0341H   R   SEG=?PR?SER_INT?MAIN_BKCD
?C0170. . . . . . . . .  C ADDR   0360H   R   SEG=?PR?SER_INT?MAIN_BKCD
?C0172. . . . . . . . .  C ADDR   0426H   R   SEG=?PR?SER_INT?MAIN_BKCD
?C0173. . . . . . . . .  C ADDR   0371H   R   SEG=?PR?SER_INT?MAIN_BKCD
?C0174. . . . . . . . .  C ADDR   0396H   R   SEG=?PR?SER_INT?MAIN_BKCD
?C0176. . . . . . . . .  C ADDR   0420H   R   SEG=?PR?SER_INT?MAIN_BKCD
?C0177. . . . . . . . .  C ADDR   03F2H   R   SEG=?PR?SER_INT?MAIN_BKCD
?C0178. . . . . . . . .  C ADDR   041AH   R   SEG=?PR?SER_INT?MAIN_BKCD
?C0179. . . . . . . . .  C ADDR   0428H   R   SEG=?PR?SER_INT?MAIN_BKCD
?C0180. . . . . . . . .  C ADDR   0476H   R   SEG=?PR?SER_INT?MAIN_BKCD
?C0181. . . . . . . . .  C ADDR   0469H   R   SEG=?PR?SER_INT?MAIN_BKCD
?C0182. . . . . . . . .  C ADDR   0444H   R   SEG=?PR?SER_INT?MAIN_BKCD
?C0183. . . . . . . . .  C ADDR   0463H   R   SEG=?PR?SER_INT?MAIN_BKCD
?C0186. . . . . . . . .  C ADDR   047CH   R   SEG=?PR?SER_INT?MAIN_BKCD
?C0187. . . . . . . . .  C ADDR   0486H   R   SEG=?PR?SER_INT?MAIN_BKCD
?C0188. . . . . . . . .  C ADDR   048EH   R   SEG=?PR?SER_INT?MAIN_BKCD
?C0189. . . . . . . . .  C ADDR   04BDH   R   SEG=?PR?SER_INT?MAIN_BKCD
?C0190. . . . . . . . .  C ADDR   04A3H   R   SEG=?PR?SER_INT?MAIN_BKCD
?C0191. . . . . . . . .  C ADDR   04A5H   R   SEG=?PR?SER_INT?MAIN_BKCD
?C0192. . . . . . . . .  C ADDR   04AEH   R   SEG=?PR?SER_INT?MAIN_BKCD
?C0193. . . . . . . . .  C ADDR   04B0H   R   SEG=?PR?SER_INT?MAIN_BKCD
?C0194. . . . . . . . .  C ADDR   04E0H   R   SEG=?PR?SER_INT?MAIN_BKCD
?C0195. . . . . . . . .  C ADDR   04C6H   R   SEG=?PR?SER_INT?MAIN_BKCD
?C0196. . . . . . . . .  C ADDR   04C8H   R   SEG=?PR?SER_INT?MAIN_BKCD
?C0197. . . . . . . . .  C ADDR   04D1H   R   SEG=?PR?SER_INT?MAIN_BKCD
?C0198. . . . . . . . .  C ADDR   04D3H   R   SEG=?PR?SER_INT?MAIN_BKCD
?C0200. . . . . . . . .  C ADDR   04ECH   R   SEG=?PR?SER_INT?MAIN_BKCD
?C0201. . . . . . . . .  C ADDR   04EEH   R   SEG=?PR?SER_INT?MAIN_BKCD
?C0202. . . . . . . . .  C ADDR   04F6H   R   SEG=?PR?SER_INT?MAIN_BKCD
?C0203. . . . . . . . .  C ADDR   04F8H   R   SEG=?PR?SER_INT?MAIN_BKCD
?C0207. . . . . . . . .  C ADDR   051CH   R   SEG=?PR?SER_INT?MAIN_BKCD
?C0208. . . . . . . . .  C ADDR   051EH   R   SEG=?PR?SER_INT?MAIN_BKCD
?C0209. . . . . . . . .  C ADDR   0525H   R   SEG=?PR?SER_INT?MAIN_BKCD
?C0210. . . . . . . . .  C ADDR   0527H   R   SEG=?PR?SER_INT?MAIN_BKCD
?C0212. . . . . . . . .  C ADDR   053EH   R   SEG=?PR?SER_INT?MAIN_BKCD
?C0213. . . . . . . . .  C ADDR   0540H   R   SEG=?PR?SER_INT?MAIN_BKCD
?C0214. . . . . . . . .  C ADDR   0548H   R   SEG=?PR?SER_INT?MAIN_BKCD
?C0215. . . . . . . . .  C ADDR   054AH   R   SEG=?PR?SER_INT?MAIN_BKCD
?C0216. . . . . . . . .  C ADDR   0558H   R   SEG=?PR?SER_INT?MAIN_BKCD
?C0217. . . . . . . . .  C ADDR   055AH   R   SEG=?PR?SER_INT?MAIN_BKCD
?C0218. . . . . . . . .  C ADDR   0591H   R   SEG=?PR?SER_INT?MAIN_BKCD
?C0219. . . . . . . . .  C ADDR   0573H   R   SEG=?PR?SER_INT?MAIN_BKCD
?C0221. . . . . . . . .  C ADDR   058AH   R   SEG=?PR?SER_INT?MAIN_BKCD
?C0223. . . . . . . . .  C ADDR   05EBH   R   SEG=?PR?SER_INT?MAIN_BKCD
?C0224. . . . . . . . .  C ADDR   059EH   R   SEG=?PR?SER_INT?MAIN_BKCD
?C0226. . . . . . . . .  C ADDR   05BEH   R   SEG=?PR?SER_INT?MAIN_BKCD
?C0227. . . . . . . . .  C ADDR   05BCH   R   SEG=?PR?SER_INT?MAIN_BKCD
?C0230. . . . . . . . .  C ADDR   05DBH   R   SEG=?PR?SER_INT?MAIN_BKCD
?C0232. . . . . . . . .  C ADDR   01C7H   R   SEG=?PR?KMD?MAIN_BKCD
?C0233. . . . . . . . .  C ADDR   01C2H   R   SEG=?PR?KMD?MAIN_BKCD
?C0234. . . . . . . . .  C ADDR   003FH   R   SEG=?PR?KMD?MAIN_BKCD
?C0235. . . . . . . . .  C ADDR   0055H   R   SEG=?PR?KMD?MAIN_BKCD
?C0237. . . . . . . . .  C ADDR   0068H   R   SEG=?PR?KMD?MAIN_BKCD
?C0238. . . . . . . . .  C ADDR   0089H   R   SEG=?PR?KMD?MAIN_BKCD
?C0239. . . . . . . . .  C ADDR   0073H   R   SEG=?PR?KMD?MAIN_BKCD
?C0240. . . . . . . . .  C ADDR   0075H   R   SEG=?PR?KMD?MAIN_BKCD
?C0241. . . . . . . . .  C ADDR   007EH   R   SEG=?PR?KMD?MAIN_BKCD
A51 MACRO ASSEMBLER  MAIN_BKCD                                                            12/02/2009 12:07:33 PAGE   132

?C0242. . . . . . . . .  C ADDR   0080H   R   SEG=?PR?KMD?MAIN_BKCD
?C0243. . . . . . . . .  C ADDR   00A8H   R   SEG=?PR?KMD?MAIN_BKCD
?C0244. . . . . . . . .  C ADDR   0092H   R   SEG=?PR?KMD?MAIN_BKCD
?C0245. . . . . . . . .  C ADDR   0094H   R   SEG=?PR?KMD?MAIN_BKCD
?C0246. . . . . . . . .  C ADDR   009DH   R   SEG=?PR?KMD?MAIN_BKCD
?C0247. . . . . . . . .  C ADDR   009FH   R   SEG=?PR?KMD?MAIN_BKCD
?C0248. . . . . . . . .  C ADDR   00C4H   R   SEG=?PR?KMD?MAIN_BKCD
?C0249. . . . . . . . .  C ADDR   00B1H   R   SEG=?PR?KMD?MAIN_BKCD
?C0250. . . . . . . . .  C ADDR   00B3H   R   SEG=?PR?KMD?MAIN_BKCD
?C0251. . . . . . . . .  C ADDR   00BCH   R   SEG=?PR?KMD?MAIN_BKCD
?C0252. . . . . . . . .  C ADDR   00BEH   R   SEG=?PR?KMD?MAIN_BKCD
?C0253. . . . . . . . .  C ADDR   00E0H   R   SEG=?PR?KMD?MAIN_BKCD
?C0254. . . . . . . . .  C ADDR   00CDH   R   SEG=?PR?KMD?MAIN_BKCD
?C0255. . . . . . . . .  C ADDR   00CFH   R   SEG=?PR?KMD?MAIN_BKCD
?C0256. . . . . . . . .  C ADDR   00D8H   R   SEG=?PR?KMD?MAIN_BKCD
?C0257. . . . . . . . .  C ADDR   00DAH   R   SEG=?PR?KMD?MAIN_BKCD
?C0258. . . . . . . . .  C ADDR   00FCH   R   SEG=?PR?KMD?MAIN_BKCD
?C0259. . . . . . . . .  C ADDR   00E9H   R   SEG=?PR?KMD?MAIN_BKCD
?C0260. . . . . . . . .  C ADDR   00EBH   R   SEG=?PR?KMD?MAIN_BKCD
?C0261. . . . . . . . .  C ADDR   00F4H   R   SEG=?PR?KMD?MAIN_BKCD
?C0262. . . . . . . . .  C ADDR   00F6H   R   SEG=?PR?KMD?MAIN_BKCD
?C0263. . . . . . . . .  C ADDR   0118H   R   SEG=?PR?KMD?MAIN_BKCD
?C0264. . . . . . . . .  C ADDR   0105H   R   SEG=?PR?KMD?MAIN_BKCD
?C0265. . . . . . . . .  C ADDR   0107H   R   SEG=?PR?KMD?MAIN_BKCD
?C0266. . . . . . . . .  C ADDR   0110H   R   SEG=?PR?KMD?MAIN_BKCD
?C0267. . . . . . . . .  C ADDR   0112H   R   SEG=?PR?KMD?MAIN_BKCD
?C0268. . . . . . . . .  C ADDR   0134H   R   SEG=?PR?KMD?MAIN_BKCD
?C0269. . . . . . . . .  C ADDR   0121H   R   SEG=?PR?KMD?MAIN_BKCD
?C0270. . . . . . . . .  C ADDR   0123H   R   SEG=?PR?KMD?MAIN_BKCD
?C0271. . . . . . . . .  C ADDR   012CH   R   SEG=?PR?KMD?MAIN_BKCD
?C0272. . . . . . . . .  C ADDR   012EH   R   SEG=?PR?KMD?MAIN_BKCD
?C0273. . . . . . . . .  C ADDR   0150H   R   SEG=?PR?KMD?MAIN_BKCD
?C0274. . . . . . . . .  C ADDR   013DH   R   SEG=?PR?KMD?MAIN_BKCD
?C0275. . . . . . . . .  C ADDR   013FH   R   SEG=?PR?KMD?MAIN_BKCD
?C0276. . . . . . . . .  C ADDR   0148H   R   SEG=?PR?KMD?MAIN_BKCD
?C0277. . . . . . . . .  C ADDR   014AH   R   SEG=?PR?KMD?MAIN_BKCD
?C0278. . . . . . . . .  C ADDR   016CH   R   SEG=?PR?KMD?MAIN_BKCD
?C0279. . . . . . . . .  C ADDR   0159H   R   SEG=?PR?KMD?MAIN_BKCD
?C0280. . . . . . . . .  C ADDR   015BH   R   SEG=?PR?KMD?MAIN_BKCD
?C0281. . . . . . . . .  C ADDR   0164H   R   SEG=?PR?KMD?MAIN_BKCD
?C0282. . . . . . . . .  C ADDR   0166H   R   SEG=?PR?KMD?MAIN_BKCD
?C0283. . . . . . . . .  C ADDR   0188H   R   SEG=?PR?KMD?MAIN_BKCD
?C0284. . . . . . . . .  C ADDR   0175H   R   SEG=?PR?KMD?MAIN_BKCD
?C0285. . . . . . . . .  C ADDR   0177H   R   SEG=?PR?KMD?MAIN_BKCD
?C0286. . . . . . . . .  C ADDR   0180H   R   SEG=?PR?KMD?MAIN_BKCD
?C0287. . . . . . . . .  C ADDR   0182H   R   SEG=?PR?KMD?MAIN_BKCD
?C0288. . . . . . . . .  C ADDR   01A4H   R   SEG=?PR?KMD?MAIN_BKCD
?C0289. . . . . . . . .  C ADDR   0191H   R   SEG=?PR?KMD?MAIN_BKCD
?C0290. . . . . . . . .  C ADDR   0193H   R   SEG=?PR?KMD?MAIN_BKCD
?C0291. . . . . . . . .  C ADDR   019CH   R   SEG=?PR?KMD?MAIN_BKCD
?C0292. . . . . . . . .  C ADDR   019EH   R   SEG=?PR?KMD?MAIN_BKCD
?C0294. . . . . . . . .  C ADDR   01ADH   R   SEG=?PR?KMD?MAIN_BKCD
?C0295. . . . . . . . .  C ADDR   01AFH   R   SEG=?PR?KMD?MAIN_BKCD
?C0296. . . . . . . . .  C ADDR   01B8H   R   SEG=?PR?KMD?MAIN_BKCD
?C0297. . . . . . . . .  C ADDR   01BAH   R   SEG=?PR?KMD?MAIN_BKCD
?C0298. . . . . . . . .  C ADDR   01C5H   R   SEG=?PR?KMD?MAIN_BKCD
?C0299. . . . . . . . .  C ADDR   0E01H   R   SEG=?PR?KMD?MAIN_BKCD
?C0300. . . . . . . . .  C ADDR   02FEH   R   SEG=?PR?KMD?MAIN_BKCD
?C0301. . . . . . . . .  C ADDR   023AH   R   SEG=?PR?KMD?MAIN_BKCD
?C0302. . . . . . . . .  C ADDR   01FBH   R   SEG=?PR?KMD?MAIN_BKCD
?C0303. . . . . . . . .  C ADDR   01FFH   R   SEG=?PR?KMD?MAIN_BKCD
?C0304. . . . . . . . .  C ADDR   0219H   R   SEG=?PR?KMD?MAIN_BKCD
?C0306. . . . . . . . .  C ADDR   020FH   R   SEG=?PR?KMD?MAIN_BKCD
?C0307. . . . . . . . .  C ADDR   0212H   R   SEG=?PR?KMD?MAIN_BKCD
?C0308. . . . . . . . .  C ADDR   021DH   R   SEG=?PR?KMD?MAIN_BKCD
?C0309. . . . . . . . .  C ADDR   0237H   R   SEG=?PR?KMD?MAIN_BKCD
A51 MACRO ASSEMBLER  MAIN_BKCD                                                            12/02/2009 12:07:33 PAGE   133

?C0311. . . . . . . . .  C ADDR   022DH   R   SEG=?PR?KMD?MAIN_BKCD
?C0312. . . . . . . . .  C ADDR   0230H   R   SEG=?PR?KMD?MAIN_BKCD
?C0314. . . . . . . . .  C ADDR   025AH   R   SEG=?PR?KMD?MAIN_BKCD
?C0315. . . . . . . . .  C ADDR   0269H   R   SEG=?PR?KMD?MAIN_BKCD
?C0316. . . . . . . . .  C ADDR   028FH   R   SEG=?PR?KMD?MAIN_BKCD
?C0317. . . . . . . . .  C ADDR   0275H   R   SEG=?PR?KMD?MAIN_BKCD
?C0320. . . . . . . . .  C ADDR   0285H   R   SEG=?PR?KMD?MAIN_BKCD
?C0321. . . . . . . . .  C ADDR   0288H   R   SEG=?PR?KMD?MAIN_BKCD
?C0322. . . . . . . . .  C ADDR   02ADH   R   SEG=?PR?KMD?MAIN_BKCD
?C0323. . . . . . . . .  C ADDR   0293H   R   SEG=?PR?KMD?MAIN_BKCD
?C0326. . . . . . . . .  C ADDR   02A3H   R   SEG=?PR?KMD?MAIN_BKCD
?C0327. . . . . . . . .  C ADDR   02A6H   R   SEG=?PR?KMD?MAIN_BKCD
?C0328. . . . . . . . .  C ADDR   02B1H   R   SEG=?PR?KMD?MAIN_BKCD
?C0329. . . . . . . . .  C ADDR   02D8H   R   SEG=?PR?KMD?MAIN_BKCD
?C0331. . . . . . . . .  C ADDR   02CEH   R   SEG=?PR?KMD?MAIN_BKCD
?C0332. . . . . . . . .  C ADDR   02D1H   R   SEG=?PR?KMD?MAIN_BKCD
?C0333. . . . . . . . .  C ADDR   02DFH   R   SEG=?PR?KMD?MAIN_BKCD
?C0334. . . . . . . . .  C ADDR   02FBH   R   SEG=?PR?KMD?MAIN_BKCD
?C0336. . . . . . . . .  C ADDR   0362H   R   SEG=?PR?KMD?MAIN_BKCD
?C0337. . . . . . . . .  C ADDR   032CH   R   SEG=?PR?KMD?MAIN_BKCD
?C0338. . . . . . . . .  C ADDR   0326H   R   SEG=?PR?KMD?MAIN_BKCD
?C0340. . . . . . . . .  C ADDR   034FH   R   SEG=?PR?KMD?MAIN_BKCD
?C0341. . . . . . . . .  C ADDR   07B6H   R   SEG=?PR?KMD?MAIN_BKCD
?C0342. . . . . . . . .  C ADDR   0432H   R   SEG=?PR?KMD?MAIN_BKCD
?C0343. . . . . . . . .  C ADDR   0384H   R   SEG=?PR?KMD?MAIN_BKCD
?C0344. . . . . . . . .  C ADDR   038DH   R   SEG=?PR?KMD?MAIN_BKCD
?C0346. . . . . . . . .  C ADDR   0395H   R   SEG=?PR?KMD?MAIN_BKCD
?C0347. . . . . . . . .  C ADDR   0410H   R   SEG=?PR?KMD?MAIN_BKCD
?C0349. . . . . . . . .  C ADDR   03A0H   R   SEG=?PR?KMD?MAIN_BKCD
?C0350. . . . . . . . .  C ADDR   03E9H   R   SEG=?PR?KMD?MAIN_BKCD
?C0352. . . . . . . . .  C ADDR   03AEH   R   SEG=?PR?KMD?MAIN_BKCD
?C0353. . . . . . . . .  C ADDR   03B0H   R   SEG=?PR?KMD?MAIN_BKCD
?C0354. . . . . . . . .  C ADDR   03B6H   R   SEG=?PR?KMD?MAIN_BKCD
?C0355. . . . . . . . .  C ADDR   03BFH   R   SEG=?PR?KMD?MAIN_BKCD
?C0357. . . . . . . . .  C ADDR   03C7H   R   SEG=?PR?KMD?MAIN_BKCD
?C0358. . . . . . . . .  C ADDR   03D0H   R   SEG=?PR?KMD?MAIN_BKCD
?C0360. . . . . . . . .  C ADDR   03EFH   R   SEG=?PR?KMD?MAIN_BKCD
?C0361. . . . . . . . .  C ADDR   03F8H   R   SEG=?PR?KMD?MAIN_BKCD
?C0363. . . . . . . . .  C ADDR   0400H   R   SEG=?PR?KMD?MAIN_BKCD
?C0364. . . . . . . . .  C ADDR   0409H   R   SEG=?PR?KMD?MAIN_BKCD
?C0366. . . . . . . . .  C ADDR   0416H   R   SEG=?PR?KMD?MAIN_BKCD
?C0367. . . . . . . . .  C ADDR   041FH   R   SEG=?PR?KMD?MAIN_BKCD
?C0369. . . . . . . . .  C ADDR   0427H   R   SEG=?PR?KMD?MAIN_BKCD
?C0370. . . . . . . . .  C ADDR   0430H   R   SEG=?PR?KMD?MAIN_BKCD
?C0373. . . . . . . . .  C ADDR   0445H   R   SEG=?PR?KMD?MAIN_BKCD
?C0374. . . . . . . . .  C ADDR   0450H   R   SEG=?PR?KMD?MAIN_BKCD
?C0375. . . . . . . . .  C ADDR   0459H   R   SEG=?PR?KMD?MAIN_BKCD
?C0377. . . . . . . . .  C ADDR   045FH   R   SEG=?PR?KMD?MAIN_BKCD
?C0378. . . . . . . . .  C ADDR   04CBH   R   SEG=?PR?KMD?MAIN_BKCD
?C0380. . . . . . . . .  C ADDR   0462H   R   SEG=?PR?KMD?MAIN_BKCD
?C0381. . . . . . . . .  C ADDR   049EH   R   SEG=?PR?KMD?MAIN_BKCD
?C0383. . . . . . . . .  C ADDR   046BH   R   SEG=?PR?KMD?MAIN_BKCD
?C0384. . . . . . . . .  C ADDR   046DH   R   SEG=?PR?KMD?MAIN_BKCD
?C0385. . . . . . . . .  C ADDR   0473H   R   SEG=?PR?KMD?MAIN_BKCD
?C0386. . . . . . . . .  C ADDR   047CH   R   SEG=?PR?KMD?MAIN_BKCD
?C0388. . . . . . . . .  C ADDR   0484H   R   SEG=?PR?KMD?MAIN_BKCD
?C0389. . . . . . . . .  C ADDR   048DH   R   SEG=?PR?KMD?MAIN_BKCD
?C0391. . . . . . . . .  C ADDR   04A4H   R   SEG=?PR?KMD?MAIN_BKCD
?C0392. . . . . . . . .  C ADDR   04ADH   R   SEG=?PR?KMD?MAIN_BKCD
?C0394. . . . . . . . .  C ADDR   04B5H   R   SEG=?PR?KMD?MAIN_BKCD
?C0395. . . . . . . . .  C ADDR   04BEH   R   SEG=?PR?KMD?MAIN_BKCD
?C0397. . . . . . . . .  C ADDR   04D1H   R   SEG=?PR?KMD?MAIN_BKCD
?C0398. . . . . . . . .  C ADDR   04DAH   R   SEG=?PR?KMD?MAIN_BKCD
?C0400. . . . . . . . .  C ADDR   04E2H   R   SEG=?PR?KMD?MAIN_BKCD
?C0401. . . . . . . . .  C ADDR   04EBH   R   SEG=?PR?KMD?MAIN_BKCD
?C0403. . . . . . . . .  C ADDR   04F3H   R   SEG=?PR?KMD?MAIN_BKCD
A51 MACRO ASSEMBLER  MAIN_BKCD                                                            12/02/2009 12:07:33 PAGE   134

?C0404. . . . . . . . .  C ADDR   04FCH   R   SEG=?PR?KMD?MAIN_BKCD
?C0406. . . . . . . . .  C ADDR   0505H   R   SEG=?PR?KMD?MAIN_BKCD
?C0407. . . . . . . . .  C ADDR   050EH   R   SEG=?PR?KMD?MAIN_BKCD
?C0409. . . . . . . . .  C ADDR   0516H   R   SEG=?PR?KMD?MAIN_BKCD
?C0410. . . . . . . . .  C ADDR   051FH   R   SEG=?PR?KMD?MAIN_BKCD
?C0412. . . . . . . . .  C ADDR   0527H   R   SEG=?PR?KMD?MAIN_BKCD
?C0413. . . . . . . . .  C ADDR   0530H   R   SEG=?PR?KMD?MAIN_BKCD
?C0415. . . . . . . . .  C ADDR   0533H   R   SEG=?PR?KMD?MAIN_BKCD
?C0416. . . . . . . . .  C ADDR   056FH   R   SEG=?PR?KMD?MAIN_BKCD
?C0418. . . . . . . . .  C ADDR   053CH   R   SEG=?PR?KMD?MAIN_BKCD
?C0419. . . . . . . . .  C ADDR   053EH   R   SEG=?PR?KMD?MAIN_BKCD
?C0420. . . . . . . . .  C ADDR   0544H   R   SEG=?PR?KMD?MAIN_BKCD
?C0421. . . . . . . . .  C ADDR   054DH   R   SEG=?PR?KMD?MAIN_BKCD
?C0423. . . . . . . . .  C ADDR   0555H   R   SEG=?PR?KMD?MAIN_BKCD
?C0424. . . . . . . . .  C ADDR   055EH   R   SEG=?PR?KMD?MAIN_BKCD
?C0426. . . . . . . . .  C ADDR   0575H   R   SEG=?PR?KMD?MAIN_BKCD
?C0427. . . . . . . . .  C ADDR   057EH   R   SEG=?PR?KMD?MAIN_BKCD
?C0429. . . . . . . . .  C ADDR   0586H   R   SEG=?PR?KMD?MAIN_BKCD
?C0430. . . . . . . . .  C ADDR   058FH   R   SEG=?PR?KMD?MAIN_BKCD
?C0432. . . . . . . . .  C ADDR   0597H   R   SEG=?PR?KMD?MAIN_BKCD
?C0433. . . . . . . . .  C ADDR   05A0H   R   SEG=?PR?KMD?MAIN_BKCD
?C0435. . . . . . . . .  C ADDR   05A7H   R   SEG=?PR?KMD?MAIN_BKCD
?C0436. . . . . . . . .  C ADDR   065DH   R   SEG=?PR?KMD?MAIN_BKCD
?C0437. . . . . . . . .  C ADDR   0657H   R   SEG=?PR?KMD?MAIN_BKCD
?C0438. . . . . . . . .  C ADDR   05B5H   R   SEG=?PR?KMD?MAIN_BKCD
?C0439. . . . . . . . .  C ADDR   060BH   R   SEG=?PR?KMD?MAIN_BKCD
?C0440. . . . . . . . .  C ADDR   0604H   R   SEG=?PR?KMD?MAIN_BKCD
?C0441. . . . . . . . .  C ADDR   05C1H   R   SEG=?PR?KMD?MAIN_BKCD
?C0442. . . . . . . . .  C ADDR   05CAH   R   SEG=?PR?KMD?MAIN_BKCD
?C0444. . . . . . . . .  C ADDR   05DDH   R   SEG=?PR?KMD?MAIN_BKCD
?C0445. . . . . . . . .  C ADDR   05F1H   R   SEG=?PR?KMD?MAIN_BKCD
?C0446. . . . . . . . .  C ADDR   05FBH   R   SEG=?PR?KMD?MAIN_BKCD
?C0449. . . . . . . . .  C ADDR   0611H   R   SEG=?PR?KMD?MAIN_BKCD
?C0450. . . . . . . . .  C ADDR   061AH   R   SEG=?PR?KMD?MAIN_BKCD
?C0452. . . . . . . . .  C ADDR   0626H   R   SEG=?PR?KMD?MAIN_BKCD
?C0453. . . . . . . . .  C ADDR   062CH   R   SEG=?PR?KMD?MAIN_BKCD
?C0454. . . . . . . . .  C ADDR   0635H   R   SEG=?PR?KMD?MAIN_BKCD
?C0456. . . . . . . . .  C ADDR   063DH   R   SEG=?PR?KMD?MAIN_BKCD
?C0457. . . . . . . . .  C ADDR   0646H   R   SEG=?PR?KMD?MAIN_BKCD
?C0459. . . . . . . . .  C ADDR   064EH   R   SEG=?PR?KMD?MAIN_BKCD
?C0462. . . . . . . . .  C ADDR   0665H   R   SEG=?PR?KMD?MAIN_BKCD
?C0463. . . . . . . . .  C ADDR   066EH   R   SEG=?PR?KMD?MAIN_BKCD
?C0465. . . . . . . . .  C ADDR   0676H   R   SEG=?PR?KMD?MAIN_BKCD
?C0466. . . . . . . . .  C ADDR   067FH   R   SEG=?PR?KMD?MAIN_BKCD
?C0468. . . . . . . . .  C ADDR   0687H   R   SEG=?PR?KMD?MAIN_BKCD
?C0469. . . . . . . . .  C ADDR   0690H   R   SEG=?PR?KMD?MAIN_BKCD
?C0471. . . . . . . . .  C ADDR   06F7H   R   SEG=?PR?KMD?MAIN_BKCD
?C0472. . . . . . . . .  C ADDR   0709H   R   SEG=?PR?KMD?MAIN_BKCD
?C0473. . . . . . . . .  C ADDR   0718H   R   SEG=?PR?KMD?MAIN_BKCD
?C0474. . . . . . . . .  C ADDR   072AH   R   SEG=?PR?KMD?MAIN_BKCD
?C0475. . . . . . . . .  C ADDR   0739H   R   SEG=?PR?KMD?MAIN_BKCD
?C0476. . . . . . . . .  C ADDR   074BH   R   SEG=?PR?KMD?MAIN_BKCD
?C0477. . . . . . . . .  C ADDR   0761H   R   SEG=?PR?KMD?MAIN_BKCD
?C0478. . . . . . . . .  C ADDR   0773H   R   SEG=?PR?KMD?MAIN_BKCD
?C0479. . . . . . . . .  C ADDR   079BH   R   SEG=?PR?KMD?MAIN_BKCD
?C0482. . . . . . . . .  C ADDR   080EH   R   SEG=?PR?KMD?MAIN_BKCD
?C0483. . . . . . . . .  C ADDR   07CBH   R   SEG=?PR?KMD?MAIN_BKCD
?C0484. . . . . . . . .  C ADDR   080AH   R   SEG=?PR?KMD?MAIN_BKCD
?C0485. . . . . . . . .  C ADDR   0803H   R   SEG=?PR?KMD?MAIN_BKCD
?C0486. . . . . . . . .  C ADDR   07CEH   R   SEG=?PR?KMD?MAIN_BKCD
?C0489. . . . . . . . .  C ADDR   07DFH   R   SEG=?PR?KMD?MAIN_BKCD
?C0490. . . . . . . . .  C ADDR   07E2H   R   SEG=?PR?KMD?MAIN_BKCD
?C0491. . . . . . . . .  C ADDR   07E7H   R   SEG=?PR?KMD?MAIN_BKCD
?C0492. . . . . . . . .  C ADDR   07EAH   R   SEG=?PR?KMD?MAIN_BKCD
?C0493. . . . . . . . .  C ADDR   08E8H   R   SEG=?PR?KMD?MAIN_BKCD
?C0494. . . . . . . . .  C ADDR   0844H   R   SEG=?PR?KMD?MAIN_BKCD
A51 MACRO ASSEMBLER  MAIN_BKCD                                                            12/02/2009 12:07:33 PAGE   135

?C0495. . . . . . . . .  C ADDR   0853H   R   SEG=?PR?KMD?MAIN_BKCD
?C0497. . . . . . . . .  C ADDR   08E2H   R   SEG=?PR?KMD?MAIN_BKCD
?C0498. . . . . . . . .  C ADDR   0866H   R   SEG=?PR?KMD?MAIN_BKCD
?C0501. . . . . . . . .  C ADDR   0876H   R   SEG=?PR?KMD?MAIN_BKCD
?C0502. . . . . . . . .  C ADDR   0879H   R   SEG=?PR?KMD?MAIN_BKCD
?C0503. . . . . . . . .  C ADDR   0880H   R   SEG=?PR?KMD?MAIN_BKCD
?C0504. . . . . . . . .  C ADDR   0883H   R   SEG=?PR?KMD?MAIN_BKCD
?C0505. . . . . . . . .  C ADDR   0887H   R   SEG=?PR?KMD?MAIN_BKCD
?C0506. . . . . . . . .  C ADDR   08AAH   R   SEG=?PR?KMD?MAIN_BKCD
?C0508. . . . . . . . .  C ADDR   08A0H   R   SEG=?PR?KMD?MAIN_BKCD
?C0509. . . . . . . . .  C ADDR   08A3H   R   SEG=?PR?KMD?MAIN_BKCD
?C0510. . . . . . . . .  C ADDR   08C6H   R   SEG=?PR?KMD?MAIN_BKCD
?C0511. . . . . . . . .  C ADDR   08C9H   R   SEG=?PR?KMD?MAIN_BKCD
?C0513. . . . . . . . .  C ADDR   08DBH   R   SEG=?PR?KMD?MAIN_BKCD
?C0515. . . . . . . . .  C ADDR   09FFH   R   SEG=?PR?KMD?MAIN_BKCD
?C0516. . . . . . . . .  C ADDR   0909H   R   SEG=?PR?KMD?MAIN_BKCD
?C0518. . . . . . . . .  C ADDR   0950H   R   SEG=?PR?KMD?MAIN_BKCD
?C0519. . . . . . . . .  C ADDR   0921H   R   SEG=?PR?KMD?MAIN_BKCD
?C0521. . . . . . . . .  C ADDR   092BH   R   SEG=?PR?KMD?MAIN_BKCD
?C0522. . . . . . . . .  C ADDR   092FH   R   SEG=?PR?KMD?MAIN_BKCD
?C0526. . . . . . . . .  C ADDR   095CH   R   SEG=?PR?KMD?MAIN_BKCD
?C0527. . . . . . . . .  C ADDR   0983H   R   SEG=?PR?KMD?MAIN_BKCD
?C0530. . . . . . . . .  C ADDR   09FFH   R   SEG=?PR?KMD?MAIN_BKCD
?C0531. . . . . . . . .  C ADDR   0A24H   R   SEG=?PR?KMD?MAIN_BKCD
?C0532. . . . . . . . .  C ADDR   0A1BH   R   SEG=?PR?KMD?MAIN_BKCD
?C0535. . . . . . . . .  C ADDR   0A36H   R   SEG=?PR?KMD?MAIN_BKCD
?C0536. . . . . . . . .  C ADDR   0A2AH   R   SEG=?PR?KMD?MAIN_BKCD
?C0537. . . . . . . . .  C ADDR   0A2DH   R   SEG=?PR?KMD?MAIN_BKCD
?C0538. . . . . . . . .  C ADDR   0A4AH   R   SEG=?PR?KMD?MAIN_BKCD
?C0540. . . . . . . . .  C ADDR   0DF6H   R   SEG=?PR?KMD?MAIN_BKCD
?C0542. . . . . . . . .  C ADDR   0A71H   R   SEG=?PR?KMD?MAIN_BKCD
?C0543. . . . . . . . .  C ADDR   0B58H   R   SEG=?PR?KMD?MAIN_BKCD
?C0544. . . . . . . . .  C ADDR   0A8AH   R   SEG=?PR?KMD?MAIN_BKCD
?C0545. . . . . . . . .  C ADDR   0AA4H   R   SEG=?PR?KMD?MAIN_BKCD
?C0547. . . . . . . . .  C ADDR   0AACH   R   SEG=?PR?KMD?MAIN_BKCD
?C0548. . . . . . . . .  C ADDR   0AB5H   R   SEG=?PR?KMD?MAIN_BKCD
?C0550. . . . . . . . .  C ADDR   0ABBH   R   SEG=?PR?KMD?MAIN_BKCD
?C0551. . . . . . . . .  C ADDR   0B36H   R   SEG=?PR?KMD?MAIN_BKCD
?C0553. . . . . . . . .  C ADDR   0AC6H   R   SEG=?PR?KMD?MAIN_BKCD
?C0554. . . . . . . . .  C ADDR   0B0FH   R   SEG=?PR?KMD?MAIN_BKCD
?C0556. . . . . . . . .  C ADDR   0AD4H   R   SEG=?PR?KMD?MAIN_BKCD
?C0557. . . . . . . . .  C ADDR   0AD6H   R   SEG=?PR?KMD?MAIN_BKCD
?C0558. . . . . . . . .  C ADDR   0ADCH   R   SEG=?PR?KMD?MAIN_BKCD
?C0559. . . . . . . . .  C ADDR   0AE5H   R   SEG=?PR?KMD?MAIN_BKCD
?C0561. . . . . . . . .  C ADDR   0AEDH   R   SEG=?PR?KMD?MAIN_BKCD
?C0562. . . . . . . . .  C ADDR   0AF6H   R   SEG=?PR?KMD?MAIN_BKCD
?C0564. . . . . . . . .  C ADDR   0B15H   R   SEG=?PR?KMD?MAIN_BKCD
?C0565. . . . . . . . .  C ADDR   0B1EH   R   SEG=?PR?KMD?MAIN_BKCD
?C0567. . . . . . . . .  C ADDR   0B26H   R   SEG=?PR?KMD?MAIN_BKCD
?C0568. . . . . . . . .  C ADDR   0B2FH   R   SEG=?PR?KMD?MAIN_BKCD
?C0570. . . . . . . . .  C ADDR   0B3CH   R   SEG=?PR?KMD?MAIN_BKCD
?C0571. . . . . . . . .  C ADDR   0B45H   R   SEG=?PR?KMD?MAIN_BKCD
?C0573. . . . . . . . .  C ADDR   0B4DH   R   SEG=?PR?KMD?MAIN_BKCD
?C0574. . . . . . . . .  C ADDR   0B56H   R   SEG=?PR?KMD?MAIN_BKCD
?C0577. . . . . . . . .  C ADDR   0B6EH   R   SEG=?PR?KMD?MAIN_BKCD
?C0578. . . . . . . . .  C ADDR   0B77H   R   SEG=?PR?KMD?MAIN_BKCD
?C0580. . . . . . . . .  C ADDR   0B7DH   R   SEG=?PR?KMD?MAIN_BKCD
?C0581. . . . . . . . .  C ADDR   0BE9H   R   SEG=?PR?KMD?MAIN_BKCD
?C0583. . . . . . . . .  C ADDR   0B80H   R   SEG=?PR?KMD?MAIN_BKCD
?C0584. . . . . . . . .  C ADDR   0BBCH   R   SEG=?PR?KMD?MAIN_BKCD
?C0586. . . . . . . . .  C ADDR   0B89H   R   SEG=?PR?KMD?MAIN_BKCD
?C0587. . . . . . . . .  C ADDR   0B8BH   R   SEG=?PR?KMD?MAIN_BKCD
?C0588. . . . . . . . .  C ADDR   0B91H   R   SEG=?PR?KMD?MAIN_BKCD
?C0589. . . . . . . . .  C ADDR   0B9AH   R   SEG=?PR?KMD?MAIN_BKCD
?C0591. . . . . . . . .  C ADDR   0BA2H   R   SEG=?PR?KMD?MAIN_BKCD
?C0592. . . . . . . . .  C ADDR   0BABH   R   SEG=?PR?KMD?MAIN_BKCD
A51 MACRO ASSEMBLER  MAIN_BKCD                                                            12/02/2009 12:07:33 PAGE   136

?C0594. . . . . . . . .  C ADDR   0BC2H   R   SEG=?PR?KMD?MAIN_BKCD
?C0595. . . . . . . . .  C ADDR   0BCBH   R   SEG=?PR?KMD?MAIN_BKCD
?C0597. . . . . . . . .  C ADDR   0BD3H   R   SEG=?PR?KMD?MAIN_BKCD
?C0598. . . . . . . . .  C ADDR   0BDCH   R   SEG=?PR?KMD?MAIN_BKCD
?C0600. . . . . . . . .  C ADDR   0BEFH   R   SEG=?PR?KMD?MAIN_BKCD
?C0601. . . . . . . . .  C ADDR   0BF8H   R   SEG=?PR?KMD?MAIN_BKCD
?C0603. . . . . . . . .  C ADDR   0C00H   R   SEG=?PR?KMD?MAIN_BKCD
?C0604. . . . . . . . .  C ADDR   0C09H   R   SEG=?PR?KMD?MAIN_BKCD
?C0606. . . . . . . . .  C ADDR   0C11H   R   SEG=?PR?KMD?MAIN_BKCD
?C0607. . . . . . . . .  C ADDR   0C1AH   R   SEG=?PR?KMD?MAIN_BKCD
?C0609. . . . . . . . .  C ADDR   0C23H   R   SEG=?PR?KMD?MAIN_BKCD
?C0610. . . . . . . . .  C ADDR   0C2CH   R   SEG=?PR?KMD?MAIN_BKCD
?C0612. . . . . . . . .  C ADDR   0C34H   R   SEG=?PR?KMD?MAIN_BKCD
?C0613. . . . . . . . .  C ADDR   0C3DH   R   SEG=?PR?KMD?MAIN_BKCD
?C0615. . . . . . . . .  C ADDR   0C45H   R   SEG=?PR?KMD?MAIN_BKCD
?C0616. . . . . . . . .  C ADDR   0C4EH   R   SEG=?PR?KMD?MAIN_BKCD
?C0618. . . . . . . . .  C ADDR   0C51H   R   SEG=?PR?KMD?MAIN_BKCD
?C0619. . . . . . . . .  C ADDR   0C8DH   R   SEG=?PR?KMD?MAIN_BKCD
?C0621. . . . . . . . .  C ADDR   0C5AH   R   SEG=?PR?KMD?MAIN_BKCD
?C0622. . . . . . . . .  C ADDR   0C5CH   R   SEG=?PR?KMD?MAIN_BKCD
?C0623. . . . . . . . .  C ADDR   0C62H   R   SEG=?PR?KMD?MAIN_BKCD
?C0624. . . . . . . . .  C ADDR   0C6BH   R   SEG=?PR?KMD?MAIN_BKCD
?C0626. . . . . . . . .  C ADDR   0C73H   R   SEG=?PR?KMD?MAIN_BKCD
?C0627. . . . . . . . .  C ADDR   0C7CH   R   SEG=?PR?KMD?MAIN_BKCD
?C0629. . . . . . . . .  C ADDR   0C93H   R   SEG=?PR?KMD?MAIN_BKCD
?C0630. . . . . . . . .  C ADDR   0C9CH   R   SEG=?PR?KMD?MAIN_BKCD
?C0632. . . . . . . . .  C ADDR   0CA4H   R   SEG=?PR?KMD?MAIN_BKCD
?C0633. . . . . . . . .  C ADDR   0CADH   R   SEG=?PR?KMD?MAIN_BKCD
?C0635. . . . . . . . .  C ADDR   0CB5H   R   SEG=?PR?KMD?MAIN_BKCD
?C0636. . . . . . . . .  C ADDR   0CBEH   R   SEG=?PR?KMD?MAIN_BKCD
?C0638. . . . . . . . .  C ADDR   0CC2H   R   SEG=?PR?KMD?MAIN_BKCD
?C0639. . . . . . . . .  C ADDR   0D78H   R   SEG=?PR?KMD?MAIN_BKCD
?C0640. . . . . . . . .  C ADDR   0D72H   R   SEG=?PR?KMD?MAIN_BKCD
?C0641. . . . . . . . .  C ADDR   0CD0H   R   SEG=?PR?KMD?MAIN_BKCD
?C0642. . . . . . . . .  C ADDR   0D26H   R   SEG=?PR?KMD?MAIN_BKCD
?C0643. . . . . . . . .  C ADDR   0D1FH   R   SEG=?PR?KMD?MAIN_BKCD
?C0644. . . . . . . . .  C ADDR   0CDCH   R   SEG=?PR?KMD?MAIN_BKCD
?C0645. . . . . . . . .  C ADDR   0CE5H   R   SEG=?PR?KMD?MAIN_BKCD
?C0647. . . . . . . . .  C ADDR   0CF8H   R   SEG=?PR?KMD?MAIN_BKCD
?C0648. . . . . . . . .  C ADDR   0D0CH   R   SEG=?PR?KMD?MAIN_BKCD
?C0649. . . . . . . . .  C ADDR   0D16H   R   SEG=?PR?KMD?MAIN_BKCD
?C0652. . . . . . . . .  C ADDR   0D2CH   R   SEG=?PR?KMD?MAIN_BKCD
?C0653. . . . . . . . .  C ADDR   0D35H   R   SEG=?PR?KMD?MAIN_BKCD
?C0655. . . . . . . . .  C ADDR   0D41H   R   SEG=?PR?KMD?MAIN_BKCD
?C0656. . . . . . . . .  C ADDR   0D47H   R   SEG=?PR?KMD?MAIN_BKCD
?C0657. . . . . . . . .  C ADDR   0D50H   R   SEG=?PR?KMD?MAIN_BKCD
?C0659. . . . . . . . .  C ADDR   0D58H   R   SEG=?PR?KMD?MAIN_BKCD
?C0660. . . . . . . . .  C ADDR   0D61H   R   SEG=?PR?KMD?MAIN_BKCD
?C0662. . . . . . . . .  C ADDR   0D69H   R   SEG=?PR?KMD?MAIN_BKCD
?C0665. . . . . . . . .  C ADDR   0D80H   R   SEG=?PR?KMD?MAIN_BKCD
?C0666. . . . . . . . .  C ADDR   0D89H   R   SEG=?PR?KMD?MAIN_BKCD
?C0668. . . . . . . . .  C ADDR   0D91H   R   SEG=?PR?KMD?MAIN_BKCD
?C0669. . . . . . . . .  C ADDR   0D9AH   R   SEG=?PR?KMD?MAIN_BKCD
?C0671. . . . . . . . .  C ADDR   0DA2H   R   SEG=?PR?KMD?MAIN_BKCD
?C0672. . . . . . . . .  C ADDR   0DABH   R   SEG=?PR?KMD?MAIN_BKCD
?C0674. . . . . . . . .  C ADDR   0DB8H   R   SEG=?PR?KMD?MAIN_BKCD
?C0675. . . . . . . . .  C ADDR   0DBCH   R   SEG=?PR?KMD?MAIN_BKCD
?C0676. . . . . . . . .  C ADDR   0DDCH   R   SEG=?PR?KMD?MAIN_BKCD
?C0678. . . . . . . . .  C ADDR   0E0BH   R   SEG=?PR?KMD?MAIN_BKCD
?C0679. . . . . . . . .  C ADDR   0014H   R   SEG=?PR?MAIN?MAIN_BKCD
?C0680. . . . . . . . .  C ADDR   005BH   R   SEG=?PR?MAIN?MAIN_BKCD
?C0681. . . . . . . . .  C ADDR   0047H   R   SEG=?PR?MAIN?MAIN_BKCD
?C0682. . . . . . . . .  C ADDR   0049H   R   SEG=?PR?MAIN?MAIN_BKCD
?C0683. . . . . . . . .  C ADDR   0051H   R   SEG=?PR?MAIN?MAIN_BKCD
?C0684. . . . . . . . .  C ADDR   0053H   R   SEG=?PR?MAIN?MAIN_BKCD
?C0685. . . . . . . . .  C ADDR   0075H   R   SEG=?PR?MAIN?MAIN_BKCD
A51 MACRO ASSEMBLER  MAIN_BKCD                                                            12/02/2009 12:07:33 PAGE   137

?C0686. . . . . . . . .  C ADDR   00BBH   R   SEG=?PR?MAIN?MAIN_BKCD
?C0687. . . . . . . . .  C ADDR   009BH   R   SEG=?PR?MAIN?MAIN_BKCD
?C0688. . . . . . . . .  C ADDR   009DH   R   SEG=?PR?MAIN?MAIN_BKCD
?C0689. . . . . . . . .  C ADDR   00A8H   R   SEG=?PR?MAIN?MAIN_BKCD
?C0690. . . . . . . . .  C ADDR   00AAH   R   SEG=?PR?MAIN?MAIN_BKCD
?C0691. . . . . . . . .  C ADDR   00BFH   R   SEG=?PR?MAIN?MAIN_BKCD
?C0692. . . . . . . . .  C ADDR   00DDH   R   SEG=?PR?MAIN?MAIN_BKCD
?C0693. . . . . . . . .  C ADDR   00F5H   R   SEG=?PR?MAIN?MAIN_BKCD
?C0694. . . . . . . . .  C ADDR   0148H   R   SEG=?PR?MAIN?MAIN_BKCD
?C0695. . . . . . . . .  C ADDR   0144H   R   SEG=?PR?MAIN?MAIN_BKCD
?C0696. . . . . . . . .  C ADDR   0128H   R   SEG=?PR?MAIN?MAIN_BKCD
?C0698. . . . . . . . .  C ADDR   0158H   R   SEG=?PR?MAIN?MAIN_BKCD
?C0699. . . . . . . . .  C ADDR   01F1H   R   SEG=?PR?MAIN?MAIN_BKCD
?C0700. . . . . . . . .  C ADDR   01ECH   R   SEG=?PR?MAIN?MAIN_BKCD
?C0701. . . . . . . . .  C ADDR   0199H   R   SEG=?PR?MAIN?MAIN_BKCD
?C0702. . . . . . . . .  C ADDR   019DH   R   SEG=?PR?MAIN?MAIN_BKCD
?C0704. . . . . . . . .  C ADDR   01E7H   R   SEG=?PR?MAIN?MAIN_BKCD
?C0706. . . . . . . . .  C ADDR   01F7H   R   SEG=?PR?MAIN?MAIN_BKCD
?C0707. . . . . . . . .  C ADDR   0210H   R   SEG=?PR?MAIN?MAIN_BKCD
?C0709. . . . . . . . .  C ADDR   02E4H   R   SEG=?PR?MAIN?MAIN_BKCD
?C0710. . . . . . . . .  C ADDR   02C3H   R   SEG=?PR?MAIN?MAIN_BKCD
?C0711. . . . . . . . .  C ADDR   03B8H   R   SEG=?PR?MAIN?MAIN_BKCD
?C0712. . . . . . . . .  C ADDR   0397H   R   SEG=?PR?MAIN?MAIN_BKCD
?C0713. . . . . . . . .  C ADDR   048CH   R   SEG=?PR?MAIN?MAIN_BKCD
?C0714. . . . . . . . .  C ADDR   046BH   R   SEG=?PR?MAIN?MAIN_BKCD
?C0715. . . . . . . . .  C ADDR   0560H   R   SEG=?PR?MAIN?MAIN_BKCD
?C0716. . . . . . . . .  C ADDR   053FH   R   SEG=?PR?MAIN?MAIN_BKCD
?C0718. . . . . . . . .  C ADDR   059FH   R   SEG=?PR?MAIN?MAIN_BKCD
?C0721. . . . . . . . .  C ADDR   022EH   R   SEG=?PR?TIMER1INT?MAIN_BKCD
?C0723. . . . . . . . .  C ADDR   0247H   R   SEG=?PR?TIMER1INT?MAIN_BKCD
?C0724. . . . . . . . .  C ADDR   03F7H   R   SEG=?PR?TIMER1INT?MAIN_BKCD
?C0726. . . . . . . . .  C ADDR   0410H   R   SEG=?PR?TIMER1INT?MAIN_BKCD
?C0728. . . . . . . . .  C ADDR   05CEH   R   SEG=?PR?TIMER1INT?MAIN_BKCD
?C0730. . . . . . . . .  C ADDR   05EEH   R   SEG=?PR?TIMER1INT?MAIN_BKCD
?C0731. . . . . . . . .  C ADDR   05F8H   R   SEG=?PR?TIMER1INT?MAIN_BKCD
?C0733. . . . . . . . .  C ADDR   07F4H   R   SEG=?PR?KMD?MAIN_BKCD
?C0734. . . . . . . . .  C ADDR   07FCH   R   SEG=?PR?KMD?MAIN_BKCD
?C0735. . . . . . . . .  C ADDR   09A8H   R   SEG=?PR?KMD?MAIN_BKCD
?C0736. . . . . . . . .  C ADDR   0369H   R   SEG=?PR?TIMER1INT?MAIN_BKCD
?C0737. . . . . . . . .  C ADDR   0532H   R   SEG=?PR?TIMER1INT?MAIN_BKCD
?C0738. . . . . . . . .  C ADDR   05D3H   R   SEG=?PR?SER_INT?MAIN_BKCD
?C0739. . . . . . . . .  C ADDR   00A3H   R   SEG=?PR?SER_INT?MAIN_BKCD
?C0740. . . . . . . . .  C ADDR   00B1H   R   SEG=?PR?SER_INT?MAIN_BKCD
?C0741. . . . . . . . .  C ADDR   00F4H   R   SEG=?PR?SER_INT?MAIN_BKCD
?C0742. . . . . . . . .  C ADDR   0506H   R   SEG=?PR?SER_INT?MAIN_BKCD
?C0743. . . . . . . . .  C ADDR   047CH   R   SEG=?PR?SER_INT?MAIN_BKCD
?C0744. . . . . . . . .  C ADDR   0508H   R   SEG=?PR?SER_INT?MAIN_BKCD
?C0745. . . . . . . . .  C ADDR   05E7H   R   SEG=?PR?SER_INT?MAIN_BKCD
?C0746. . . . . . . . .  C ADDR   05BCH   R   SEG=?PR?SER_INT?MAIN_BKCD
?C0747. . . . . . . . .  C ADDR   05E8H   R   SEG=?PR?SER_INT?MAIN_BKCD
?C0748. . . . . . . . .  C ADDR   0A21H   R   SEG=?PR?KMD?MAIN_BKCD
?C?IILDX. . . . . . . .  C ADDR   -----       EXT
?C?LADD . . . . . . . .  C ADDR   -----       EXT
?C?LLDIDATA . . . . . .  C ADDR   -----       EXT
?C?LLDIDATA0. . . . . .  C ADDR   -----       EXT
?C?LLDXDATA . . . . . .  C ADDR   -----       EXT
?C?LSHL . . . . . . . .  C ADDR   -----       EXT
?C?LSTIDATA . . . . . .  C ADDR   -----       EXT
?C?LSTKXDATA. . . . . .  C ADDR   -----       EXT
?C?LSTXDATA . . . . . .  C ADDR   -----       EXT
?C?SLCMP. . . . . . . .  C ADDR   -----       EXT
?C?UIDIV. . . . . . . .  C ADDR   -----       EXT
?C?ULCMP. . . . . . . .  C ADDR   -----       EXT
?C?ULDIV. . . . . . . .  C ADDR   -----       EXT
?C?ULSHR. . . . . . . .  C ADDR   -----       EXT
?CO?MAIN_BKCD . . . . .  C SEG    0080H       REL=UNIT
A51 MACRO ASSEMBLER  MAIN_BKCD                                                            12/02/2009 12:07:33 PAGE   138

?C_INITSEG. . . . . . .  C SEG    0078H       REL=UNIT
?C_STARTUP. . . . . . .  C ADDR   -----       EXT
?DT?MAIN_BKCD . . . . .  D SEG    0047H       REL=UNIT
?DT?SER_INT?MAIN_BKCD .  D SEG    0002H       REL=UNIT
?ID?MAIN_BKCD . . . . .  I SEG    003CH       REL=UNIT
?KMD?PR01 . . . . . . .  C ADDR   09FCH   R   SEG=?PR?KMD?MAIN_BKCD
?MAIN?ZZ1 . . . . . . .  C ADDR   057CH   R   SEG=?PR?MAIN?MAIN_BKCD
?PR?INTIE?MAIN_BKCD . .  C SEG    01BAH       REL=UNIT
?PR?KMD?MAIN_BKCD . . .  C SEG    0E0CH       REL=UNIT
?PR?MAIN?MAIN_BKCD. . .  C SEG    05A6H       REL=UNIT
?PR?SER_INT?MAIN_BKCD .  C SEG    0602H       REL=UNIT
?PR?STTIM1?MAIN_BKCD. .  C SEG    000DH       REL=UNIT
?PR?TIMER1INT?MAIN_BKCD  C SEG    0603H       REL=UNIT
?SER_INT?BYTE . . . . .  D ADDR   0000H   R   SEG=?DT?SER_INT?MAIN_BKCD
?SER_INT?KON. . . . . .  C ADDR   05F7H   R   SEG=?PR?SER_INT?MAIN_BKCD
?XD?MAIN_BKCD . . . . .  X SEG    0032H       REL=UNIT
A?. . . . . . . . . . .  I ADDR   -----       EXT
AC. . . . . . . . . . .  B ADDR   00D0H.6 A   
ACC . . . . . . . . . .  D ADDR   00E0H   A   
ADC0CON1. . . . . . . .  D ADDR   00D2H   A   
ADC0CON2. . . . . . . .  D ADDR   00E6H   A   
ADC0H . . . . . . . . .  D ADDR   00DBH   A   
ADC0L . . . . . . . . .  D ADDR   00D9H   A   
ADC0M . . . . . . . . .  D ADDR   00DAH   A   
ADCBUF. . . . . . . . .  I ADDR   -----       EXT
ADCINS. . . . . . . . .  I ADDR   0036H   R   SEG=?ID?MAIN_BKCD
ADCMODE . . . . . . . .  D ADDR   00D1H   A   
ADCSTAT . . . . . . . .  D ADDR   00D8H   A   
ADR_BF. . . . . . . . .  X ADDR   0019H   R   SEG=?XD?MAIN_BKCD
ADR_E . . . . . . . . .  D ADDR   0045H   R   SEG=?DT?MAIN_BKCD
ADR_INDEKC. . . . . . .  I ADDR   002CH   R   SEG=?ID?MAIN_BKCD
AR0 . . . . . . . . . .  D ADDR   0000H   A   
AR2 . . . . . . . . . .  D ADDR   0002H   A   
AR4 . . . . . . . . . .  D ADDR   0004H   A   
AR5 . . . . . . . . . .  D ADDR   0005H   A   
AR6 . . . . . . . . . .  D ADDR   0006H   A   
AR7 . . . . . . . . . .  D ADDR   0007H   A   
A_N1. . . . . . . . . .  I ADDR   000FH   R   SEG=?ID?MAIN_BKCD
A_N2. . . . . . . . . .  I ADDR   0011H   R   SEG=?ID?MAIN_BKCD
B . . . . . . . . . . .  D ADDR   00F0H   A   
BUFCHT1 . . . . . . . .  D ADDR   000EH   R   SEG=?DT?MAIN_BKCD
BUFOUT. . . . . . . . .  X ADDR   0040H   A   
BUF_ADCCON2 . . . . . .  X ADDR   0230H   A   
BUF_SH. . . . . . . . .  X ADDR   002EH   R   SEG=?XD?MAIN_BKCD
BUF_T . . . . . . . . .  X ADDR   -----       EXT
CAL . . . . . . . . . .  B ADDR   00D8H.5 A   
CAP2. . . . . . . . . .  B ADDR   00C8H.0 A   
CFG848. . . . . . . . .  D ADDR   00AFH   A   
CH. . . . . . . . . . .  I ADDR   0001H   R   SEG=?ID?MAIN_BKCD
CHIPID. . . . . . . . .  D ADDR   00C2H   A   
CLK_DAY . . . . . . . .  I ADDR   000CH   R   SEG=?ID?MAIN_BKCD
CM1 . . . . . . . . . .  D ADDR   0037H   R   SEG=?DT?MAIN_BKCD
CM2 . . . . . . . . . .  D ADDR   0039H   R   SEG=?DT?MAIN_BKCD
CM3 . . . . . . . . . .  D ADDR   003BH   R   SEG=?DT?MAIN_BKCD
CMD . . . . . . . . . .  D ADDR   0010H   R   SEG=?DT?MAIN_BKCD
CM_CRD. . . . . . . . .  I ADDR   0020H   R   SEG=?ID?MAIN_BKCD
CM_RAX. . . . . . . . .  I ADDR   0026H   R   SEG=?ID?MAIN_BKCD
CNT2. . . . . . . . . .  B ADDR   00C8H.1 A   
CNT_CIKL. . . . . . . .  I ADDR   002EH   R   SEG=?ID?MAIN_BKCD
CNT_CT. . . . . . . . .  X ADDR   0029H   R   SEG=?XD?MAIN_BKCD
CNT_DOL . . . . . . . .  I ADDR   0029H   R   SEG=?ID?MAIN_BKCD
CNT_T . . . . . . . . .  X ADDR   0005H   R   SEG=?XD?MAIN_BKCD
CNT_TM_DOL. . . . . . .  X ADDR   000EH   R   SEG=?XD?MAIN_BKCD
COPY_P. . . . . . . . .  D ADDR   0000H   R   SEG=?DT?MAIN_BKCD
COPY_P1 . . . . . . . .  D ADDR   0034H   R   SEG=?DT?MAIN_BKCD
CPHA. . . . . . . . . .  B ADDR   00F8H.2 A   
A51 MACRO ASSEMBLER  MAIN_BKCD                                                            12/02/2009 12:07:33 PAGE   139

CPOL. . . . . . . . . .  B ADDR   00F8H.3 A   
CRC . . . . . . . . . .  D ADDR   0033H   R   SEG=?DT?MAIN_BKCD
CRCO. . . . . . . . . .  I ADDR   0013H   R   SEG=?ID?MAIN_BKCD
CY. . . . . . . . . . .  B ADDR   00D0H.7 A   
DACCON. . . . . . . . .  D ADDR   00FDH   A   
DACH. . . . . . . . . .  D ADDR   00FCH   A   
DACL. . . . . . . . . .  D ADDR   00FBH   A   
DATA_KNP. . . . . . . .  I ADDR   0028H   R   SEG=?ID?MAIN_BKCD
DATA_KNP1 . . . . . . .  I ADDR   0004H   R   SEG=?ID?MAIN_BKCD
DL. . . . . . . . . . .  X ADDR   0003H   R   SEG=?XD?MAIN_BKCD
DL_P. . . . . . . . . .  X ADDR   000AH   R   SEG=?XD?MAIN_BKCD
DPCON . . . . . . . . .  D ADDR   00A7H   A   
DPH . . . . . . . . . .  D ADDR   0083H   A   
DPL . . . . . . . . . .  D ADDR   0082H   A   
DPP . . . . . . . . . .  D ADDR   0084H   A   
EA. . . . . . . . . . .  B ADDR   00A8H.7 A   
EADC. . . . . . . . . .  B ADDR   00A8H.6 A   
EADRH . . . . . . . . .  D ADDR   00C7H   A   
EADRL . . . . . . . . .  D ADDR   00C6H   A   
ECON. . . . . . . . . .  D ADDR   00B9H   A   
EDATA1. . . . . . . . .  D ADDR   00BCH   A   
EDATA2. . . . . . . . .  D ADDR   00BDH   A   
EDATA3. . . . . . . . .  D ADDR   00BEH   A   
EDATA4. . . . . . . . .  D ADDR   00BFH   A   
EEPR_ADDBUF . . . . . .  I ADDR   0017H   R   SEG=?ID?MAIN_BKCD
ENS . . . . . . . . . .  B ADDR   0001H.2 R   SEG=?BI?MAIN_BKCD
EP2 . . . . . . . . . .  B ADDR   0000H.1 R   SEG=?BI?MAIN_BKCD
ER1 . . . . . . . . . .  B ADDR   0000H.2 R   SEG=?BI?MAIN_BKCD
ER2 . . . . . . . . . .  B ADDR   0000H.3 R   SEG=?BI?MAIN_BKCD
ERR0. . . . . . . . . .  B ADDR   00D8H.3 A   
ERR1. . . . . . . . . .  B ADDR   00D8H.2 A   
ES. . . . . . . . . . .  B ADDR   00A8H.4 A   
ET0 . . . . . . . . . .  B ADDR   00A8H.1 A   
ET1 . . . . . . . . . .  B ADDR   00A8H.3 A   
ET2 . . . . . . . . . .  B ADDR   00A8H.5 A   
EX0 . . . . . . . . . .  B ADDR   00A8H.0 A   
EX1 . . . . . . . . . .  B ADDR   00A8H.2 A   
EXEN2 . . . . . . . . .  B ADDR   00C8H.3 A   
EXF2. . . . . . . . . .  B ADDR   00C8H.6 A   
F0. . . . . . . . . . .  B ADDR   00D0H.5 A   
F1. . . . . . . . . . .  B ADDR   00D0H.1 A   
FCMD. . . . . . . . . .  B ADDR   0000H.5 R   SEG=?BI?MAIN_BKCD
FCNT1_SEC . . . . . . .  B ADDR   0000H.4 R   SEG=?BI?MAIN_BKCD
FCNT_SEC. . . . . . . .  B ADDR   0002H.3 R   SEG=?BI?MAIN_BKCD
FCOPLBUF. . . . . . . .  B ADDR   0002H.1 R   SEG=?BI?MAIN_BKCD
FF1 . . . . . . . . . .  B ADDR   0003H.1 R   SEG=?BI?MAIN_BKCD
FLAGADC . . . . . . . .  B ADDR   0001H.1 R   SEG=?BI?MAIN_BKCD
FLZ . . . . . . . . . .  X ADDR   0022H   R   SEG=?XD?MAIN_BKCD
FL_20 . . . . . . . . .  B ADDR   0001H.5 R   SEG=?BI?MAIN_BKCD
FL_21 . . . . . . . . .  B ADDR   0001H.6 R   SEG=?BI?MAIN_BKCD
FL_BLOK_EEPR. . . . . .  B ADDR   0000H.7 R   SEG=?BI?MAIN_BKCD
FL_CMR. . . . . . . . .  B ADDR   0001H.7 R   SEG=?BI?MAIN_BKCD
FL_KNP. . . . . . . . .  B ADDR   0002H.2 R   SEG=?BI?MAIN_BKCD
FL_REZ_OUT. . . . . . .  B ADDR   0001H.0 R   SEG=?BI?MAIN_BKCD
FL_SIN_ADC. . . . . . .  B ADDR   0000H.0 R   SEG=?BI?MAIN_BKCD
FZB0. . . . . . . . . .  B ADDR   0002H.6 R   SEG=?BI?MAIN_BKCD
FZB1. . . . . . . . . .  B ADDR   0002H.7 R   SEG=?BI?MAIN_BKCD
FZB2. . . . . . . . . .  B ADDR   0003H.0 R   SEG=?BI?MAIN_BKCD
F_ZIZM. . . . . . . . .  B ADDR   0002H.4 R   SEG=?BI?MAIN_BKCD
GN0H. . . . . . . . . .  D ADDR   00EBH   A   
GN0L. . . . . . . . . .  D ADDR   00E9H   A   
GN0M. . . . . . . . . .  D ADDR   00EAH   A   
GOT . . . . . . . . . .  B ADDR   0001H.3 R   SEG=?BI?MAIN_BKCD
HOUR. . . . . . . . . .  D ADDR   00A5H   A   
HTHSEC. . . . . . . . .  D ADDR   00A2H   A   
I . . . . . . . . . . .  I ADDR   002BH   R   SEG=?ID?MAIN_BKCD
A51 MACRO ASSEMBLER  MAIN_BKCD                                                            12/02/2009 12:07:33 PAGE   140

I1. . . . . . . . . . .  D ADDR   0004H   R   SEG=?DT?MAIN_BKCD
I1?341. . . . . . . . .  D ADDR   0001H   R   SEG=?DT?SER_INT?MAIN_BKCD
I2CADD. . . . . . . . .  D ADDR   009BH   A   
I2CADD1 . . . . . . . .  D ADDR   00F2H   A   
I2CCON. . . . . . . . .  D ADDR   00E8H   A   
I2CDAT. . . . . . . . .  D ADDR   009AH   A   
I2CI. . . . . . . . . .  B ADDR   00E8H.0 A   
I2CM. . . . . . . . . .  B ADDR   00E8H.3 A   
I2CRS . . . . . . . . .  B ADDR   00E8H.2 A   
I2CTX . . . . . . . . .  B ADDR   00E8H.1 A   
I?340 . . . . . . . . .  D ADDR   0000H   R   SEG=?DT?SER_INT?MAIN_BKCD
ICON. . . . . . . . . .  D ADDR   00D5H   A   
IE. . . . . . . . . . .  D ADDR   00A8H   A   
IE0 . . . . . . . . . .  B ADDR   0088H.1 A   
IE1 . . . . . . . . . .  B ADDR   0088H.3 A   
IEIP2 . . . . . . . . .  D ADDR   00A9H   A   
INDEKC. . . . . . . . .  I ADDR   0015H   R   SEG=?ID?MAIN_BKCD
IND_TAB . . . . . . . .  D ADDR   0003H   R   SEG=?DT?MAIN_BKCD
INT0. . . . . . . . . .  B ADDR   00B0H.2 A   
INT1. . . . . . . . . .  B ADDR   00B0H.3 A   
INTIE . . . . . . . . .  C ADDR   0000H   R   SEG=?PR?INTIE?MAIN_BKCD
INTVAL. . . . . . . . .  D ADDR   00A6H   A   
IP. . . . . . . . . . .  D ADDR   00B8H   A   
ISPI. . . . . . . . . .  B ADDR   00F8H.7 A   
IT0 . . . . . . . . . .  B ADDR   0088H.0 A   
IT1 . . . . . . . . . .  B ADDR   0088H.2 A   
J . . . . . . . . . . .  I ADDR   002DH   R   SEG=?ID?MAIN_BKCD
J1. . . . . . . . . . .  I ADDR   000DH   R   SEG=?ID?MAIN_BKCD
J2. . . . . . . . . . .  I ADDR   000EH   R   SEG=?ID?MAIN_BKCD
KLD_MONTH . . . . . . .  I ADDR   0000H   R   SEG=?ID?MAIN_BKCD
KLD_YEAR. . . . . . . .  I ADDR   0002H   R   SEG=?ID?MAIN_BKCD
KMD . . . . . . . . . .  C ADDR   0000H   R   SEG=?PR?KMD?MAIN_BKCD
KON_T . . . . . . . . .  B ADDR   0000H.6 R   SEG=?BI?MAIN_BKCD
K_PAH . . . . . . . . .  X ADDR   0000H   R   SEG=?XD?MAIN_BKCD
LBUF. . . . . . . . . .  X ADDR   0000H   A   
LEN . . . . . . . . . .  D ADDR   0036H   R   SEG=?DT?MAIN_BKCD
LEN1. . . . . . . . . .  D ADDR   0042H   R   SEG=?DT?MAIN_BKCD
LEN_O . . . . . . . . .  D ADDR   0002H   R   SEG=?DT?MAIN_BKCD
LEN_P . . . . . . . . .  I ADDR   002FH   R   SEG=?ID?MAIN_BKCD
LINEADD . . . . . . . .  D ADDR   0040H   R   SEG=?DT?MAIN_BKCD
LINEADD_O . . . . . . .  X ADDR   000CH   R   SEG=?XD?MAIN_BKCD
MAIN. . . . . . . . . .  C ADDR   0000H   R   SEG=?PR?MAIN?MAIN_BKCD
MAIN_BKCD . . . . . . .  N NUMB   -----       
MCO . . . . . . . . . .  B ADDR   00E8H.5 A   
MDE . . . . . . . . . .  B ADDR   00E8H.6 A   
MDI . . . . . . . . . .  B ADDR   00E8H.4 A   
MDO . . . . . . . . . .  B ADDR   00E8H.7 A   
MI. . . . . . . . . . .  X ADDR   0023H   R   SEG=?XD?MAIN_BKCD
MI1 . . . . . . . . . .  X ADDR   0001H   R   SEG=?XD?MAIN_BKCD
MIN . . . . . . . . . .  D ADDR   00A4H   A   
MM. . . . . . . . . . .  I ADDR   0005H   R   SEG=?ID?MAIN_BKCD
MSK_ERR . . . . . . . .  X ADDR   0016H   R   SEG=?XD?MAIN_BKCD
MSK_LADR. . . . . . . .  I ADDR   0030H   R   SEG=?ID?MAIN_BKCD
MSK_PW1 . . . . . . . .  X ADDR   000BH   R   SEG=?XD?MAIN_BKCD
MSK_PW2 . . . . . . . .  X ADDR   000DH   R   SEG=?XD?MAIN_BKCD
NM_STR. . . . . . . . .  X ADDR   002CH   R   SEG=?XD?MAIN_BKCD
NOXREF. . . . . . . . .  B ADDR   00D8H.4 A   
NR. . . . . . . . . . .  D ADDR   0041H   R   SEG=?DT?MAIN_BKCD
NR1 . . . . . . . . . .  I ADDR   0003H   R   SEG=?ID?MAIN_BKCD
NRO . . . . . . . . . .  I ADDR   0022H   R   SEG=?ID?MAIN_BKCD
OB_PAR. . . . . . . . .  X ADDR   002DH   R   SEG=?XD?MAIN_BKCD
OF0H. . . . . . . . . .  D ADDR   00E3H   A   
OF0L. . . . . . . . . .  D ADDR   00E1H   A   
OF0M. . . . . . . . . .  D ADDR   00E2H   A   
OV. . . . . . . . . . .  B ADDR   00D0H.2 A   
P . . . . . . . . . . .  B ADDR   00D0H.0 A   
A51 MACRO ASSEMBLER  MAIN_BKCD                                                            12/02/2009 12:07:33 PAGE   141

P0. . . . . . . . . . .  D ADDR   0080H   A   
P1. . . . . . . . . . .  D ADDR   0090H   A   
P2. . . . . . . . . . .  D ADDR   00A0H   A   
P3. . . . . . . . . . .  D ADDR   00B0H   A   
PADC. . . . . . . . . .  B ADDR   00B8H.6 A   
PA_H. . . . . . . . . .  X ADDR   0017H   R   SEG=?XD?MAIN_BKCD
PA_L. . . . . . . . . .  X ADDR   0018H   R   SEG=?XD?MAIN_BKCD
PCON. . . . . . . . . .  D ADDR   0087H   A   
PLLCON. . . . . . . . .  D ADDR   00D7H   A   
PRE0. . . . . . . . . .  B ADDR   00C0H.4 A   
PRE1. . . . . . . . . .  B ADDR   00C0H.5 A   
PRE2. . . . . . . . . .  B ADDR   00C0H.6 A   
PRE3. . . . . . . . . .  B ADDR   00C0H.7 A   
PRIEM . . . . . . . . .  X ADDR   0009H   R   SEG=?XD?MAIN_BKCD
PS. . . . . . . . . . .  B ADDR   00B8H.4 A   
PSMCON. . . . . . . . .  D ADDR   00DFH   A   
PSW . . . . . . . . . .  D ADDR   00D0H   A   
PT0 . . . . . . . . . .  B ADDR   00B8H.1 A   
PT1 . . . . . . . . . .  B ADDR   00B8H.3 A   
PT2 . . . . . . . . . .  B ADDR   00B8H.5 A   
PWM0H . . . . . . . . .  D ADDR   00B2H   A   
PWM0L . . . . . . . . .  D ADDR   00B1H   A   
PWM1H . . . . . . . . .  D ADDR   00B4H   A   
PWM1L . . . . . . . . .  D ADDR   00B3H   A   
PWMCON. . . . . . . . .  D ADDR   00AEH   A   
PX0 . . . . . . . . . .  B ADDR   00B8H.0 A   
PX1 . . . . . . . . . .  B ADDR   00B8H.2 A   
R1? . . . . . . . . . .  D ADDR   0005H   R   SEG=?DT?MAIN_BKCD
R2? . . . . . . . . . .  D ADDR   0009H   R   SEG=?DT?MAIN_BKCD
RASX1 . . . . . . . . .  I ADDR   0031H   R   SEG=?ID?MAIN_BKCD
RASX1_S . . . . . . . .  X ADDR   001AH   R   SEG=?XD?MAIN_BKCD
RASX1_T . . . . . . . .  I ADDR   001CH   R   SEG=?ID?MAIN_BKCD
RASX2 . . . . . . . . .  I ADDR   0033H   R   SEG=?ID?MAIN_BKCD
RASX2_S . . . . . . . .  X ADDR   001EH   R   SEG=?XD?MAIN_BKCD
RASX2_T . . . . . . . .  I ADDR   001EH   R   SEG=?ID?MAIN_BKCD
RB8 . . . . . . . . . .  B ADDR   0098H.2 A   
RCAP2H. . . . . . . . .  D ADDR   00CBH   A   
RCAP2L. . . . . . . . .  D ADDR   00CAH   A   
RCLK. . . . . . . . . .  B ADDR   00C8H.5 A   
RD. . . . . . . . . . .  B ADDR   00B0H.7 A   
RDY0. . . . . . . . . .  B ADDR   00D8H.7 A   
RDY1. . . . . . . . . .  B ADDR   00D8H.6 A   
REN . . . . . . . . . .  B ADDR   0098H.4 A   
REZ . . . . . . . . . .  B ADDR   0001H.4 R   SEG=?BI?MAIN_BKCD
RI. . . . . . . . . . .  B ADDR   0098H.0 A   
RS0 . . . . . . . . . .  B ADDR   00D0H.3 A   
RS1 . . . . . . . . . .  B ADDR   00D0H.4 A   
RXD . . . . . . . . . .  B ADDR   00B0H.0 A   
SBUF. . . . . . . . . .  D ADDR   0099H   A   
SCON. . . . . . . . . .  D ADDR   0098H   A   
SEC . . . . . . . . . .  D ADDR   00A3H   A   
SER_INT . . . . . . . .  C ADDR   0000H   R   SEG=?PR?SER_INT?MAIN_BKCD
SETUP . . . . . . . . .  C ADDR   -----       EXT
SETUP_ADC . . . . . . .  C ADDR   -----       EXT
SF. . . . . . . . . . .  D ADDR   00D4H   A   
SM0 . . . . . . . . . .  B ADDR   0098H.7 A   
SM1 . . . . . . . . . .  B ADDR   0098H.6 A   
SM2 . . . . . . . . . .  B ADDR   0098H.5 A   
SP. . . . . . . . . . .  D ADDR   0081H   A   
SPE . . . . . . . . . .  B ADDR   00F8H.5 A   
SPH . . . . . . . . . .  D ADDR   00B7H   A   
SPICON. . . . . . . . .  D ADDR   00F8H   A   
SPIDAT. . . . . . . . .  D ADDR   00F7H   A   
SPIM. . . . . . . . . .  B ADDR   00F8H.4 A   
SPR0. . . . . . . . . .  B ADDR   00F8H.0 A   
SPR1. . . . . . . . . .  B ADDR   00F8H.1 A   
A51 MACRO ASSEMBLER  MAIN_BKCD                                                            12/02/2009 12:07:33 PAGE   142

STATUS. . . . . . . . .  D ADDR   000DH   R   SEG=?DT?MAIN_BKCD
STAT_IN . . . . . . . .  I ADDR   0038H   R   SEG=?ID?MAIN_BKCD
STR_CH_A. . . . . . . .  X ADDR   -----       EXT
STR_TDAT. . . . . . . .  X ADDR   07B4H   A   
STTIM1. . . . . . . . .  C ADDR   0000H   R   SEG=?PR?STTIM1?MAIN_BKCD
ST_SER. . . . . . . . .  X ADDR   0004H   R   SEG=?XD?MAIN_BKCD
S_OTV . . . . . . . . .  X ADDR   0015H   R   SEG=?XD?MAIN_BKCD
T . . . . . . . . . . .  B ADDR   0002H.5 R   SEG=?BI?MAIN_BKCD
T0. . . . . . . . . . .  B ADDR   00B0H.4 A   
T1. . . . . . . . . . .  B ADDR   00B0H.5 A   
T11 . . . . . . . . . .  B ADDR   0002H.0 R   SEG=?BI?MAIN_BKCD
T2. . . . . . . . . . .  B ADDR   0090H.0 A   
T2CON . . . . . . . . .  D ADDR   00C8H   A   
T2EX. . . . . . . . . .  B ADDR   0090H.1 A   
T3CON . . . . . . . . .  D ADDR   009EH   A   
T3FD. . . . . . . . . .  D ADDR   009DH   A   
TABX_DAT. . . . . . . .  X ADDR   002AH   R   SEG=?XD?MAIN_BKCD
TAB_NO_LINE_1 . . . . .  C ADDR   0000H   R   SEG=?CO?MAIN_BKCD
TAB_NO_LINE_2 . . . . .  C ADDR   0040H   R   SEG=?CO?MAIN_BKCD
TASK_3. . . . . . . . .  C ADDR   -----       EXT
TB8 . . . . . . . . . .  B ADDR   0098H.3 A   
TCLK. . . . . . . . . .  B ADDR   00C8H.4 A   
TCON. . . . . . . . . .  D ADDR   0088H   A   
TEMP. . . . . . . . . .  I ADDR   001BH   R   SEG=?ID?MAIN_BKCD
TEMP_1. . . . . . . . .  I ADDR   -----       EXT
TF0 . . . . . . . . . .  B ADDR   0088H.5 A   
TF1 . . . . . . . . . .  B ADDR   0088H.7 A   
TF2 . . . . . . . . . .  B ADDR   00C8H.7 A   
TH0 . . . . . . . . . .  D ADDR   008CH   A   
TH1 . . . . . . . . . .  D ADDR   008DH   A   
TH2 . . . . . . . . . .  D ADDR   00CDH   A   
TI. . . . . . . . . . .  B ADDR   0098H.1 A   
TIMECON . . . . . . . .  D ADDR   00A1H   A   
TIMER1INT . . . . . . .  C ADDR   0000H   R   SEG=?PR?TIMER1INT?MAIN_BKCD
TL0 . . . . . . . . . .  D ADDR   008AH   A   
TL1 . . . . . . . . . .  D ADDR   008BH   A   
TL2 . . . . . . . . . .  D ADDR   00CCH   A   
TMO . . . . . . . . . .  I ADDR   0023H   R   SEG=?ID?MAIN_BKCD
TMOD. . . . . . . . . .  D ADDR   0089H   A   
TMP . . . . . . . . . .  I ADDR   0024H   R   SEG=?ID?MAIN_BKCD
TMPADC. . . . . . . . .  D ADDR   0043H   R   SEG=?DT?MAIN_BKCD
TMPADC_M. . . . . . . .  D ADDR   003DH   R   SEG=?DT?MAIN_BKCD
TMS . . . . . . . . . .  I ADDR   0025H   R   SEG=?ID?MAIN_BKCD
TM_LINE . . . . . . . .  I ADDR   0014H   R   SEG=?ID?MAIN_BKCD
TR0 . . . . . . . . . .  B ADDR   0088H.4 A   
TR1 . . . . . . . . . .  B ADDR   0088H.6 A   
TR2 . . . . . . . . . .  B ADDR   00C8H.2 A   
TXD . . . . . . . . . .  B ADDR   00B0H.1 A   
T_MS_ADC. . . . . . . .  I ADDR   003AH   R   SEG=?ID?MAIN_BKCD
VR_P. . . . . . . . . .  X ADDR   0025H   R   SEG=?XD?MAIN_BKCD
WADC. . . . . . . . . .  D ADDR   -----       EXT
WADC1 . . . . . . . . .  D ADDR   003FH   R   SEG=?DT?MAIN_BKCD
WCOL. . . . . . . . . .  B ADDR   00F8H.6 A   
WDCON . . . . . . . . .  D ADDR   00C0H   A   
WDE . . . . . . . . . .  B ADDR   00C0H.1 A   
WDIR. . . . . . . . . .  B ADDR   00C0H.3 A   
WDS . . . . . . . . . .  B ADDR   00C0H.2 A   
WDWR. . . . . . . . . .  B ADDR   00C0H.0 A   
WR. . . . . . . . . . .  B ADDR   00B0H.6 A   
W_STAT. . . . . . . . .  I ADDR   0035H   R   SEG=?ID?MAIN_BKCD
XBUFIN. . . . . . . . .  X ADDR   0080H   A   
Z0. . . . . . . . . . .  X ADDR   0010H   R   SEG=?XD?MAIN_BKCD
Z1. . . . . . . . . . .  X ADDR   0011H   R   SEG=?XD?MAIN_BKCD
Z2. . . . . . . . . . .  X ADDR   0012H   R   SEG=?XD?MAIN_BKCD
Z3. . . . . . . . . . .  X ADDR   0013H   R   SEG=?XD?MAIN_BKCD
Z4. . . . . . . . . . .  X ADDR   0014H   R   SEG=?XD?MAIN_BKCD
A51 MACRO ASSEMBLER  MAIN_BKCD                                                            12/02/2009 12:07:33 PAGE   143

ZADC. . . . . . . . . .  I ADDR   -----       EXT
ZBUF. . . . . . . . . .  D ADDR   0011H   R   SEG=?DT?MAIN_BKCD
ZG_TABX_DAT . . . . . .  X ADDR   -----       EXT
_FU_REPR. . . . . . . .  C ADDR   -----       EXT
_FU_WEPR. . . . . . . .  C ADDR   -----       EXT


REGISTER BANK(S) USED: 0 1 2 


ASSEMBLY COMPLETE.  0 WARNING(S), 0 ERROR(S)
